---
triple:          'arm64-apple-darwin'
binary-path:     a.out
relocations:
  - { offsetInCU: 0x86BF, offset: 0x86BF, size: 0x8, addend: 0x0, symName: __ZNSt3__117__floyd_sift_downB7v160006INS_17_ClassicAlgPolicyERNS_4lessINS_4pairIxNS_6vectorIiNS_9allocatorIiEEEEEEEENS_11__wrap_iterIPS8_EEEET1_SE_OT0_NS_15iterator_traitsISE_E15difference_typeE, symObjAddr: 0x5844, symBinAddr: 0x100008A60, symSize: 0x148 }
  - { offsetInCU: 0x9CD0, offset: 0x9CD0, size: 0x8, addend: 0x0, symName: __ZNSt3__1neB7v160006IPiEEbRKNS_11__wrap_iterIT_EES6_, symObjAddr: 0x710, symBinAddr: 0x10000392C, symSize: 0x34 }
  - { offsetInCU: 0x9D13, offset: 0x9D13, size: 0x8, addend: 0x0, symName: __ZNSt3__19make_pairB7v160006IRxRNS_6vectorIiNS_9allocatorIiEEEEEENS_4pairINS_18__unwrap_ref_decayIT_E4typeENS8_IT0_E4typeEEEOS9_OSC_, symObjAddr: 0xD78, symBinAddr: 0x100003F94, symSize: 0x40 }
  - { offsetInCU: 0xA99C, offset: 0xA99C, size: 0x8, addend: 0x0, symName: __ZNSt3__14endlB7v160006IcNS_11char_traitsIcEEEERNS_13basic_ostreamIT_T0_EES7_, symObjAddr: 0xE10, symBinAddr: 0x10000402C, symSize: 0x58 }
  - { offsetInCU: 0xA9DC, offset: 0xA9DC, size: 0x8, addend: 0x0, symName: __ZNSt3__1eqB7v160006IPiEEbRKNS_11__wrap_iterIT_EES6_, symObjAddr: 0xE94, symBinAddr: 0x1000040B0, symSize: 0x48 }
  - { offsetInCU: 0xAA1F, offset: 0xAA1F, size: 0x8, addend: 0x0, symName: __ZNSt3__118__debug_db_erase_cB7v160006INS_6vectorINS1_IiNS_9allocatorIiEEEENS2_IS4_EEEEEEvPT_, symObjAddr: 0x11CC, symBinAddr: 0x1000043E8, symSize: 0x10 }
  - { offsetInCU: 0xAA50, offset: 0xAA50, size: 0x8, addend: 0x0, symName: __ZNSt3__112__to_addressB7v160006INS_6vectorIiNS_9allocatorIiEEEEEEPT_S6_, symObjAddr: 0x12E8, symBinAddr: 0x100004504, symSize: 0x14 }
  - { offsetInCU: 0xAA85, offset: 0xAA85, size: 0x8, addend: 0x0, symName: __ZNSt3__119__libcpp_deallocateB7v160006EPvmm, symObjAddr: 0x1420, symBinAddr: 0x10000463C, symSize: 0x30 }
  - { offsetInCU: 0xAACD, offset: 0xAACD, size: 0x8, addend: 0x0, symName: __ZNSt3__127__do_deallocate_handle_sizeB7v160006IJEEEvPvmDpT_, symObjAddr: 0x1450, symBinAddr: 0x10000466C, symSize: 0x28 }
  - { offsetInCU: 0xAB0B, offset: 0xAB0B, size: 0x8, addend: 0x0, symName: __ZNSt3__124__libcpp_operator_deleteB7v160006IJPvEEEvDpT_, symObjAddr: 0x1478, symBinAddr: 0x100004694, symSize: 0x24 }
  - { offsetInCU: 0xAB40, offset: 0xAB40, size: 0x8, addend: 0x0, symName: __ZNSt3__118__debug_db_erase_cB7v160006INS_6vectorINS_4pairIxNS1_IiNS_9allocatorIiEEEEEENS3_IS6_EEEEEEvPT_, symObjAddr: 0x1778, symBinAddr: 0x100004994, symSize: 0x10 }
  - { offsetInCU: 0xAB71, offset: 0xAB71, size: 0x8, addend: 0x0, symName: __ZNSt3__112__to_addressB7v160006INS_4pairIxNS_6vectorIiNS_9allocatorIiEEEEEEEEPT_S8_, symObjAddr: 0x18BC, symBinAddr: 0x100004AD8, symSize: 0x14 }
  - { offsetInCU: 0xABA6, offset: 0xABA6, size: 0x8, addend: 0x0, symName: __ZNSt3__119__debug_db_insert_cB7v160006INS_6vectorINS_4pairIxNS1_IiNS_9allocatorIiEEEEEENS3_IS6_EEEEEEvPT_, symObjAddr: 0x1B74, symBinAddr: 0x100004D90, symSize: 0x10 }
  - { offsetInCU: 0xABD7, offset: 0xABD7, size: 0x8, addend: 0x0, symName: __ZNSt3__119__debug_db_insert_cB7v160006INS_6vectorINS1_IiNS_9allocatorIiEEEENS2_IS4_EEEEEEvPT_, symObjAddr: 0x1CE0, symBinAddr: 0x100004EFC, symSize: 0x10 }
  - { offsetInCU: 0xAC08, offset: 0xAC08, size: 0x8, addend: 0x0, symName: __ZNSt3__19push_heapB7v160006INS_11__wrap_iterIPNS_4pairIxNS_6vectorIiNS_9allocatorIiEEEEEEEENS_4lessIS7_EEEEvT_SC_T0_, symObjAddr: 0x1E24, symBinAddr: 0x100005040, symSize: 0x40 }
  - { offsetInCU: 0xAC5E, offset: 0xAC5E, size: 0x8, addend: 0x0, symName: __ZNSt3__13maxB7v160006ImEERKT_S3_S3_, symObjAddr: 0x24F0, symBinAddr: 0x10000570C, symSize: 0x2C }
  - { offsetInCU: 0xACA1, offset: 0xACA1, size: 0x8, addend: 0x0, symName: __ZNSt3__13minB7v160006ImEERKT_S3_S3_, symObjAddr: 0x251C, symBinAddr: 0x100005738, symSize: 0x2C }
  - { offsetInCU: 0xAEE5, offset: 0xAEE5, size: 0x8, addend: 0x0, symName: __ZNSt3__13minB7v160006ImNS_6__lessImmEEEERKT_S5_S5_T0_, symObjAddr: 0x25A8, symBinAddr: 0x1000057C4, symSize: 0x54 }
  - { offsetInCU: 0xAF7A, offset: 0xAF7A, size: 0x8, addend: 0x0, symName: __ZNSt3__120__throw_length_errorB7v160006EPKc, symObjAddr: 0x2684, symBinAddr: 0x1000058A0, symSize: 0x64 }
  - { offsetInCU: 0xAFA2, offset: 0xAFA2, size: 0x8, addend: 0x0, symName: __ZNSt3__13maxB7v160006ImNS_6__lessImmEEEERKT_S5_S5_T0_, symObjAddr: 0x2768, symBinAddr: 0x100005984, symSize: 0x54 }
  - { offsetInCU: 0xAFFC, offset: 0xAFFC, size: 0x8, addend: 0x0, symName: __ZNSt3__119__allocate_at_leastB7v160006INS_9allocatorINS_4pairIxNS_6vectorIiNS1_IiEEEEEEEEEENS_19__allocation_resultINS_16allocator_traitsIT_E7pointerEEERSA_m, symObjAddr: 0x28CC, symBinAddr: 0x100005AE8, symSize: 0x40 }
  - { offsetInCU: 0xB03F, offset: 0xB03F, size: 0x8, addend: 0x0, symName: __ZNSt3__117__libcpp_allocateB7v160006Emm, symObjAddr: 0x2A50, symBinAddr: 0x100005C6C, symSize: 0x28 }
  - { offsetInCU: 0xB07C, offset: 0xB07C, size: 0x8, addend: 0x0, symName: __ZNSt3__121__libcpp_operator_newB7v160006IJmEEEPvDpT_, symObjAddr: 0x2A78, symBinAddr: 0x100005C94, symSize: 0x24 }
  - { offsetInCU: 0xB0B5, offset: 0xB0B5, size: 0x8, addend: 0x0, symName: __ZNSt3__142__uninitialized_allocator_move_if_noexceptB7v160006INS_9allocatorINS_4pairIxNS_6vectorIiNS1_IiEEEEEEEENS_16reverse_iteratorIPS6_EESA_SA_EET2_RT_T0_T1_SB_, symObjAddr: 0x2B00, symBinAddr: 0x100005D1C, symSize: 0x12C }
  - { offsetInCU: 0xB155, offset: 0xB155, size: 0x8, addend: 0x0, symName: __ZNSt3__14swapB7v160006IPNS_4pairIxNS_6vectorIiNS_9allocatorIiEEEEEEEENS_9enable_ifIXaasr21is_move_constructibleIT_EE5valuesr18is_move_assignableIS9_EE5valueEvE4typeERS9_SC_, symObjAddr: 0x2C78, symBinAddr: 0x100005E94, symSize: 0x3C }
  - { offsetInCU: 0xB1A6, offset: 0xB1A6, size: 0x8, addend: 0x0, symName: __ZNSt3__125__debug_db_invalidate_allB7v160006INS_6vectorINS_4pairIxNS1_IiNS_9allocatorIiEEEEEENS3_IS6_EEEEEEvPT_, symObjAddr: 0x2D60, symBinAddr: 0x100005F7C, symSize: 0x10 }
  - { offsetInCU: 0xB1D7, offset: 0xB1D7, size: 0x8, addend: 0x0, symName: __ZNSt3__122__make_exception_guardB7v160006INS_29_AllocatorDestroyRangeReverseINS_9allocatorINS_4pairIxNS_6vectorIiNS2_IiEEEEEEEENS_16reverse_iteratorIPS7_EEEEEENS_28__exception_guard_exceptionsIT_EESE_, symObjAddr: 0x2D70, symBinAddr: 0x100005F8C, symSize: 0x4C }
  - { offsetInCU: 0xB20D, offset: 0xB20D, size: 0x8, addend: 0x0, symName: __ZNSt3__1neB7v160006IPNS_4pairIxNS_6vectorIiNS_9allocatorIiEEEEEES7_EEbRKNS_16reverse_iteratorIT_EERKNS8_IT0_EE, symObjAddr: 0x2E00, symBinAddr: 0x10000601C, symSize: 0x48 }
  - { offsetInCU: 0xB259, offset: 0xB259, size: 0x8, addend: 0x0, symName: __ZNSt3__112__to_addressB7v160006INS_16reverse_iteratorIPNS_4pairIxNS_6vectorIiNS_9allocatorIiEEEEEEEEvEENS_5decayIDTclsr19__to_address_helperIT_EE6__callclsr3stdE7declvalIRKSB_EEEEE4typeESD_, symObjAddr: 0x2E7C, symBinAddr: 0x100006098, symSize: 0x24 }
  - { offsetInCU: 0xB28F, offset: 0xB28F, size: 0x8, addend: 0x0, symName: __ZNSt3__119__debug_db_insert_cB7v160006INS_6vectorIiNS_9allocatorIiEEEEEEvPT_, symObjAddr: 0x31F0, symBinAddr: 0x10000640C, symSize: 0x10 }
  - { offsetInCU: 0xB2C0, offset: 0xB2C0, size: 0x8, addend: 0x0, symName: __ZNSt3__115__debug_db_swapB7v160006INS_6vectorIiNS_9allocatorIiEEEEEEvPT_S6_, symObjAddr: 0x3200, symBinAddr: 0x10000641C, symSize: 0x14 }
  - { offsetInCU: 0xB328, offset: 0xB328, size: 0x8, addend: 0x0, symName: __ZNSt3__119__allocator_destroyB7v160006INS_9allocatorINS_4pairIxNS_6vectorIiNS1_IiEEEEEEEENS_16reverse_iteratorINS8_IPS6_EEEESB_EEvRT_T0_T1_, symObjAddr: 0x3484, symBinAddr: 0x1000066A0, symSize: 0x70 }
  - { offsetInCU: 0xB38D, offset: 0xB38D, size: 0x8, addend: 0x0, symName: __ZNSt3__1neB7v160006INS_16reverse_iteratorIPNS_4pairIxNS_6vectorIiNS_9allocatorIiEEEEEEEES9_EEbRKNS1_IT_EERKNS1_IT0_EE, symObjAddr: 0x3530, symBinAddr: 0x10000674C, symSize: 0x60 }
  - { offsetInCU: 0xB3D9, offset: 0xB3D9, size: 0x8, addend: 0x0, symName: __ZNSt3__112__to_addressB7v160006INS_16reverse_iteratorINS1_IPNS_4pairIxNS_6vectorIiNS_9allocatorIiEEEEEEEEEEvEENS_5decayIDTclsr19__to_address_helperIT_EE6__callclsr3stdE7declvalIRKSC_EEEEE4typeESE_, symObjAddr: 0x3590, symBinAddr: 0x1000067AC, symSize: 0x24 }
  - { offsetInCU: 0xB438, offset: 0xB438, size: 0x8, addend: 0x0, symName: __ZNSt3__111__push_heapB7v160006INS_17_ClassicAlgPolicyENS_11__wrap_iterIPNS_4pairIxNS_6vectorIiNS_9allocatorIiEEEEEEEENS_4lessIS8_EEEEvT0_SD_RT1_, symObjAddr: 0x38F8, symBinAddr: 0x100006B14, symSize: 0x5C }
  - { offsetInCU: 0xB4A5, offset: 0xB4A5, size: 0x8, addend: 0x0, symName: __ZNSt3__1miB7v160006IPNS_4pairIxNS_6vectorIiNS_9allocatorIiEEEEEES7_EEDTmicldtfp_4baseEcldtfp0_4baseEERKNS_11__wrap_iterIT_EERKNS9_IT0_EE, symObjAddr: 0x3954, symBinAddr: 0x100006B70, symSize: 0x48 }
  - { offsetInCU: 0xB4F1, offset: 0xB4F1, size: 0x8, addend: 0x0, symName: __ZNSt3__19__sift_upB7v160006INS_17_ClassicAlgPolicyERNS_4lessINS_4pairIxNS_6vectorIiNS_9allocatorIiEEEEEEEENS_11__wrap_iterIPS8_EEEEvT1_SE_OT0_NS_15iterator_traitsISE_E15difference_typeE, symObjAddr: 0x399C, symBinAddr: 0x100006BB8, symSize: 0x19C }
  - { offsetInCU: 0xB638, offset: 0xB638, size: 0x8, addend: 0x0, symName: __ZNSt3__1ltB7v160006IxNS_6vectorIiNS_9allocatorIiEEEEEEbRKNS_4pairIT_T0_EESA_, symObjAddr: 0x3C90, symBinAddr: 0x100006EAC, symSize: 0xA0 }
  - { offsetInCU: 0xB687, offset: 0xB687, size: 0x8, addend: 0x0, symName: __ZNSt3__1ltB7v160006IiNS_9allocatorIiEEEEbRKNS_6vectorIT_T0_EES8_, symObjAddr: 0x3D30, symBinAddr: 0x100006F4C, symSize: 0x68 }
  - { offsetInCU: 0xB6D6, offset: 0xB6D6, size: 0x8, addend: 0x0, symName: __ZNSt3__123lexicographical_compareB7v160006INS_11__wrap_iterIPKiEES4_EEbT_S5_T0_S6_, symObjAddr: 0x3D98, symBinAddr: 0x100006FB4, symSize: 0x60 }
  - { offsetInCU: 0xB73E, offset: 0xB73E, size: 0x8, addend: 0x0, symName: __ZNSt3__123lexicographical_compareB7v160006INS_11__wrap_iterIPKiEES4_NS_6__lessIiiEEEEbT_S7_T0_S8_T1_, symObjAddr: 0x3E58, symBinAddr: 0x100007074, symSize: 0x64 }
  - { offsetInCU: 0xB7BD, offset: 0xB7BD, size: 0x8, addend: 0x0, symName: __ZNSt3__125__lexicographical_compareB7v160006IRNS_6__lessIiiEENS_11__wrap_iterIPKiEES7_EEbT0_S8_T1_S9_T_, symObjAddr: 0x3EBC, symBinAddr: 0x1000070D8, symSize: 0x11C }
  - { offsetInCU: 0xB83C, offset: 0xB83C, size: 0x8, addend: 0x0, symName: __ZNSt3__1neB7v160006IPKiEEbRKNS_11__wrap_iterIT_EES7_, symObjAddr: 0x3FD8, symBinAddr: 0x1000071F4, symSize: 0x34 }
  - { offsetInCU: 0xB87F, offset: 0xB87F, size: 0x8, addend: 0x0, symName: __ZNSt3__1eqB7v160006IPKiEEbRKNS_11__wrap_iterIT_EES7_, symObjAddr: 0x400C, symBinAddr: 0x100007228, symSize: 0x48 }
  - { offsetInCU: 0xB8FD, offset: 0xB8FD, size: 0x8, addend: 0x0, symName: __ZNSt3__125__debug_db_invalidate_allB7v160006INS_6vectorIiNS_9allocatorIiEEEEEEvPT_, symObjAddr: 0x44CC, symBinAddr: 0x1000076E8, symSize: 0x10 }
  - { offsetInCU: 0xB92E, offset: 0xB92E, size: 0x8, addend: 0x0, symName: __ZNSt3__112__to_addressB7v160006IiEEPT_S2_, symObjAddr: 0x4594, symBinAddr: 0x1000077B0, symSize: 0x14 }
  - { offsetInCU: 0xB963, offset: 0xB963, size: 0x8, addend: 0x0, symName: __ZNSt3__122__make_exception_guardB7v160006INS_6vectorIiNS_9allocatorIiEEE16__destroy_vectorEEENS_28__exception_guard_exceptionsIT_EES7_, symObjAddr: 0x498C, symBinAddr: 0x100007BA8, symSize: 0x40 }
  - { offsetInCU: 0xB998, offset: 0xB998, size: 0x8, addend: 0x0, symName: __ZNSt3__119__allocate_at_leastB7v160006INS_9allocatorIiEEEENS_19__allocation_resultINS_16allocator_traitsIT_E7pointerEEERS5_m, symObjAddr: 0x4CAC, symBinAddr: 0x100007EC8, symSize: 0x40 }
  - { offsetInCU: 0xB9DB, offset: 0xB9DB, size: 0x8, addend: 0x0, symName: __ZNSt3__130__uninitialized_allocator_copyB7v160006INS_9allocatorIiEEPiS3_S3_EET2_RT_T0_T1_S4_, symObjAddr: 0x4E64, symBinAddr: 0x100008080, symSize: 0xF4 }
  - { offsetInCU: 0xBA79, offset: 0xBA79, size: 0x8, addend: 0x0, symName: __ZNSt3__122__make_exception_guardB7v160006INS_29_AllocatorDestroyRangeReverseINS_9allocatorIiEEPiEEEENS_28__exception_guard_exceptionsIT_EES7_, symObjAddr: 0x4FC8, symBinAddr: 0x1000081E4, symSize: 0x4C }
  - { offsetInCU: 0xBAAF, offset: 0xBAAF, size: 0x8, addend: 0x0, symName: __ZNSt3__119__allocator_destroyB7v160006INS_9allocatorIiEENS_16reverse_iteratorIPiEES5_EEvRT_T0_T1_, symObjAddr: 0x5250, symBinAddr: 0x10000846C, symSize: 0x70 }
  - { offsetInCU: 0xBB12, offset: 0xBB12, size: 0x8, addend: 0x0, symName: __ZNSt3__1neB7v160006IPiS1_EEbRKNS_16reverse_iteratorIT_EERKNS2_IT0_EE, symObjAddr: 0x52F4, symBinAddr: 0x100008510, symSize: 0x48 }
  - { offsetInCU: 0xBB5E, offset: 0xBB5E, size: 0x8, addend: 0x0, symName: __ZNSt3__112__to_addressB7v160006INS_16reverse_iteratorIPiEEvEENS_5decayIDTclsr19__to_address_helperIT_EE6__callclsr3stdE7declvalIRKS5_EEEEE4typeES7_, symObjAddr: 0x533C, symBinAddr: 0x100008558, symSize: 0x24 }
  - { offsetInCU: 0xBBBD, offset: 0xBBBD, size: 0x8, addend: 0x0, symName: __ZNSt3__118__debug_db_erase_cB7v160006INS_6vectorIiNS_9allocatorIiEEEEEEvPT_, symObjAddr: 0x5608, symBinAddr: 0x100008824, symSize: 0x10 }
  - { offsetInCU: 0xBBEE, offset: 0xBBEE, size: 0x8, addend: 0x0, symName: __ZNSt3__18pop_heapB7v160006INS_11__wrap_iterIPNS_4pairIxNS_6vectorIiNS_9allocatorIiEEEEEEEENS_4lessIS7_EEEEvT_SC_T0_, symObjAddr: 0x565C, symBinAddr: 0x100008878, symSize: 0x58 }
  - { offsetInCU: 0xBC52, offset: 0xBC52, size: 0x8, addend: 0x0, symName: __ZNSt3__110__pop_heapB7v160006INS_17_ClassicAlgPolicyENS_4lessINS_4pairIxNS_6vectorIiNS_9allocatorIiEEEEEEEENS_11__wrap_iterIPS8_EEEEvT1_SD_RT0_NS_15iterator_traitsISD_E15difference_typeE, symObjAddr: 0x56E0, symBinAddr: 0x1000088FC, symSize: 0x164 }
  - { offsetInCU: 0xBCFC, offset: 0xBCFC, size: 0x8, addend: 0x0, symName: __ZNSt3__1eqB7v160006IPNS_4pairIxNS_6vectorIiNS_9allocatorIiEEEEEEEEbRKNS_11__wrap_iterIT_EESC_, symObjAddr: 0x598C, symBinAddr: 0x100008BA8, symSize: 0x48 }
  - { offsetInCU: 0xBD3F, offset: 0xBD3F, size: 0x8, addend: 0x0, symName: __ZNSt3__119__allocate_at_leastB7v160006INS_9allocatorINS_6vectorIiNS1_IiEEEEEEEENS_19__allocation_resultINS_16allocator_traitsIT_E7pointerEEERS8_m, symObjAddr: 0x628C, symBinAddr: 0x1000094A8, symSize: 0x40 }
  - { offsetInCU: 0xBD82, offset: 0xBD82, size: 0x8, addend: 0x0, symName: __ZNSt3__142__uninitialized_allocator_move_if_noexceptB7v160006INS_9allocatorINS_6vectorIiNS1_IiEEEEEENS_16reverse_iteratorIPS4_EES8_S8_EET2_RT_T0_T1_S9_, symObjAddr: 0x6444, symBinAddr: 0x100009660, symSize: 0x12C }
  - { offsetInCU: 0xBE22, offset: 0xBE22, size: 0x8, addend: 0x0, symName: __ZNSt3__14swapB7v160006IPNS_6vectorIiNS_9allocatorIiEEEEEENS_9enable_ifIXaasr21is_move_constructibleIT_EE5valuesr18is_move_assignableIS7_EE5valueEvE4typeERS7_SA_, symObjAddr: 0x65BC, symBinAddr: 0x1000097D8, symSize: 0x3C }
  - { offsetInCU: 0xBE73, offset: 0xBE73, size: 0x8, addend: 0x0, symName: __ZNSt3__125__debug_db_invalidate_allB7v160006INS_6vectorINS1_IiNS_9allocatorIiEEEENS2_IS4_EEEEEEvPT_, symObjAddr: 0x66C0, symBinAddr: 0x1000098DC, symSize: 0x10 }
  - { offsetInCU: 0xBEA4, offset: 0xBEA4, size: 0x8, addend: 0x0, symName: __ZNSt3__122__make_exception_guardB7v160006INS_29_AllocatorDestroyRangeReverseINS_9allocatorINS_6vectorIiNS2_IiEEEEEENS_16reverse_iteratorIPS5_EEEEEENS_28__exception_guard_exceptionsIT_EESC_, symObjAddr: 0x66D0, symBinAddr: 0x1000098EC, symSize: 0x4C }
  - { offsetInCU: 0xBEDA, offset: 0xBEDA, size: 0x8, addend: 0x0, symName: __ZNSt3__1neB7v160006IPNS_6vectorIiNS_9allocatorIiEEEES5_EEbRKNS_16reverse_iteratorIT_EERKNS6_IT0_EE, symObjAddr: 0x6760, symBinAddr: 0x10000997C, symSize: 0x48 }
  - { offsetInCU: 0xBF26, offset: 0xBF26, size: 0x8, addend: 0x0, symName: __ZNSt3__112__to_addressB7v160006INS_16reverse_iteratorIPNS_6vectorIiNS_9allocatorIiEEEEEEvEENS_5decayIDTclsr19__to_address_helperIT_EE6__callclsr3stdE7declvalIRKS9_EEEEE4typeESB_, symObjAddr: 0x67DC, symBinAddr: 0x1000099F8, symSize: 0x24 }
  - { offsetInCU: 0xBF85, offset: 0xBF85, size: 0x8, addend: 0x0, symName: __ZNSt3__119__allocator_destroyB7v160006INS_9allocatorINS_6vectorIiNS1_IiEEEEEENS_16reverse_iteratorINS6_IPS4_EEEES9_EEvRT_T0_T1_, symObjAddr: 0x6ABC, symBinAddr: 0x100009CD8, symSize: 0x70 }
  - { offsetInCU: 0xBFEA, offset: 0xBFEA, size: 0x8, addend: 0x0, symName: __ZNSt3__1neB7v160006INS_16reverse_iteratorIPNS_6vectorIiNS_9allocatorIiEEEEEES7_EEbRKNS1_IT_EERKNS1_IT0_EE, symObjAddr: 0x6B68, symBinAddr: 0x100009D84, symSize: 0x60 }
  - { offsetInCU: 0xC036, offset: 0xC036, size: 0x8, addend: 0x0, symName: __ZNSt3__112__to_addressB7v160006INS_16reverse_iteratorINS1_IPNS_6vectorIiNS_9allocatorIiEEEEEEEEvEENS_5decayIDTclsr19__to_address_helperIT_EE6__callclsr3stdE7declvalIRKSA_EEEEE4typeESC_, symObjAddr: 0x6BC8, symBinAddr: 0x100009DE4, symSize: 0x24 }
  - { offsetInCU: 0xC095, offset: 0xC095, size: 0x8, addend: 0x0, symName: __ZNSt3__142__uninitialized_allocator_move_if_noexceptB7v160006INS_9allocatorIiEENS_16reverse_iteratorIPiEES5_ivEET1_RT_T0_S9_S6_, symObjAddr: 0x77DC, symBinAddr: 0x10000A9F8, symSize: 0x78 }
  - { offsetInCU: 0xC112, offset: 0xC112, size: 0x8, addend: 0x0, symName: __ZNSt3__14swapB7v160006IPiEENS_9enable_ifIXaasr21is_move_constructibleIT_EE5valuesr18is_move_assignableIS3_EE5valueEvE4typeERS3_S6_, symObjAddr: 0x7854, symBinAddr: 0x10000AA70, symSize: 0x3C }
  - { offsetInCU: 0xC163, offset: 0xC163, size: 0x8, addend: 0x0, symName: __ZNSt3__14moveB7v160006INS_16reverse_iteratorIPiEES3_EET0_T_S5_S4_, symObjAddr: 0x7890, symBinAddr: 0x10000AAAC, symSize: 0x78 }
  - { offsetInCU: 0xC1BD, offset: 0xC1BD, size: 0x8, addend: 0x0, symName: __ZNSt3__16__moveB7v160006INS_17_ClassicAlgPolicyENS_16reverse_iteratorIPiEES4_S4_EENS_4pairIT0_T2_EES6_T1_S7_, symObjAddr: 0x7908, symBinAddr: 0x10000AB24, symSize: 0x64 }
  - { offsetInCU: 0xC229, offset: 0xC229, size: 0x8, addend: 0x0, symName: __ZNSt3__123__dispatch_copy_or_moveB7v160006INS_17_ClassicAlgPolicyENS_11__move_loopIS1_EENS_14__move_trivialENS_16reverse_iteratorIPiEES7_S7_EENS_4pairIT2_T4_EES9_T3_SA_, symObjAddr: 0x796C, symBinAddr: 0x10000AB88, symSize: 0x64 }
  - { offsetInCU: 0xC2A7, offset: 0xC2A7, size: 0x8, addend: 0x0, symName: __ZNSt3__121__unwrap_and_dispatchB7v160006INS_10__overloadINS_11__move_loopINS_17_ClassicAlgPolicyEEENS_14__move_trivialEEENS_16reverse_iteratorIPiEES9_S9_Li0EEENS_4pairIT0_T2_EESB_T1_SC_, symObjAddr: 0x79D0, symBinAddr: 0x10000ABEC, symSize: 0x12C }
  - { offsetInCU: 0xC337, offset: 0xC337, size: 0x8, addend: 0x0, symName: __ZNSt3__114__unwrap_rangeB7v160006INS_16reverse_iteratorIPiEES3_EENS_4pairIT0_S5_EET_S7_, symObjAddr: 0x7AFC, symBinAddr: 0x10000AD18, symSize: 0x84 }
  - { offsetInCU: 0xC4A9, offset: 0xC4A9, size: 0x8, addend: 0x0, symName: __ZNSt3__113__unwrap_iterB7v160006INS_16reverse_iteratorIPiEENS_18__unwrap_iter_implIS3_Lb0EEELi0EEEDTclsrT0_8__unwrapclsr3stdE7declvalIT_EEEES7_, symObjAddr: 0x7C20, symBinAddr: 0x10000AE3C, symSize: 0x44 }
  - { offsetInCU: 0xC4ED, offset: 0xC4ED, size: 0x8, addend: 0x0, symName: __ZNSt3__19make_pairB7v160006INS_16reverse_iteratorIPiEES3_EENS_4pairINS_18__unwrap_ref_decayIT_E4typeENS5_IT0_E4typeEEEOS6_OS9_, symObjAddr: 0x7C64, symBinAddr: 0x10000AE80, symSize: 0x38 }
  - { offsetInCU: 0xC53C, offset: 0xC53C, size: 0x8, addend: 0x0, symName: __ZNSt3__114__rewrap_rangeB7v160006INS_16reverse_iteratorIPiEES3_EET_S4_T0_, symObjAddr: 0x7C9C, symBinAddr: 0x10000AEB8, symSize: 0x5C }
  - { offsetInCU: 0xC588, offset: 0xC588, size: 0x8, addend: 0x0, symName: __ZNSt3__113__rewrap_iterB7v160006INS_16reverse_iteratorIPiEES3_NS_18__unwrap_iter_implIS3_Lb0EEEEET_S6_T0_, symObjAddr: 0x7CF8, symBinAddr: 0x10000AF14, symSize: 0x74 }
  - { offsetInCU: 0xC649, offset: 0xC649, size: 0x8, addend: 0x0, symName: __ZNSt3__19use_facetB7v160006INS_5ctypeIcEEEERKT_RKNS_6localeE, symObjAddr: 0x814C, symBinAddr: 0x10000B368, symSize: 0x2C }
  - { offsetInCU: 0xCED1, offset: 0xCED1, size: 0x8, addend: 0x0, symName: __ZSt28__throw_bad_array_new_lengthB7v160006v, symObjAddr: 0x2A1C, symBinAddr: 0x100005C38, symSize: 0x34 }
  - { offsetInCU: 0xD6C7, offset: 0xD6C7, size: 0x8, addend: 0x0, symName: __ZNSt3__16vectorINS_4pairIxNS0_IiNS_9allocatorIiEEEEEENS2_IS5_EEE26__swap_out_circular_bufferERNS_14__split_bufferIS5_RS6_EE, symObjAddr: 0x2330, symBinAddr: 0x10000554C, symSize: 0x118 }
  - { offsetInCU: 0xD7B2, offset: 0xD7B2, size: 0x8, addend: 0x0, symName: __ZNSt3__16vectorINS0_IiNS_9allocatorIiEEEENS1_IS3_EEE26__swap_out_circular_bufferERNS_14__split_bufferIS3_RS4_EE, symObjAddr: 0x5F14, symBinAddr: 0x100009130, symSize: 0x118 }
  - { offsetInCU: 0xD843, offset: 0xD843, size: 0x8, addend: 0x0, symName: __ZNSt3__16vectorIiNS_9allocatorIiEEE26__swap_out_circular_bufferERNS_14__split_bufferIiRS2_EE, symObjAddr: 0x746C, symBinAddr: 0x10000A688, symSize: 0x118 }
  - { offsetInCU: 0xFE7A, offset: 0xFE7A, size: 0x8, addend: 0x0, symName: __ZN7MatroidC2Eii, symObjAddr: 0x0, symBinAddr: 0x10000321C, symSize: 0x58 }
  - { offsetInCU: 0xFEC0, offset: 0xFEC0, size: 0x8, addend: 0x0, symName: __ZNSt3__114priority_queueINS_4pairIxNS_6vectorIiNS_9allocatorIiEEEEEENS2_IS6_NS3_IS6_EEEENS_4lessIS6_EEEC1B7v160006Ev, symObjAddr: 0x58, symBinAddr: 0x100003274, symSize: 0x2C }
  - { offsetInCU: 0xFEE9, offset: 0xFEE9, size: 0x8, addend: 0x0, symName: __ZNSt3__16vectorINS0_IiNS_9allocatorIiEEEENS1_IS3_EEEC1B7v160006Ev, symObjAddr: 0x84, symBinAddr: 0x1000032A0, symSize: 0x2C }
  - { offsetInCU: 0xFF12, offset: 0xFF12, size: 0x8, addend: 0x0, symName: __ZN7MatroidC1Eii, symObjAddr: 0xB0, symBinAddr: 0x1000032CC, symSize: 0x3C }
  - { offsetInCU: 0xFF58, offset: 0xFF58, size: 0x8, addend: 0x0, symName: __ZN7Matroid7addElemENSt3__14pairIxNS0_6vectorIiNS0_9allocatorIiEEEEEE, symObjAddr: 0xEC, symBinAddr: 0x100003308, symSize: 0x30 }
  - { offsetInCU: 0xFF8C, offset: 0xFF8C, size: 0x8, addend: 0x0, symName: __ZNSt3__114priority_queueINS_4pairIxNS_6vectorIiNS_9allocatorIiEEEEEENS2_IS6_NS3_IS6_EEEENS_4lessIS6_EEE4pushERKS6_, symObjAddr: 0x11C, symBinAddr: 0x100003338, symSize: 0x58 }
  - { offsetInCU: 0xFFC2, offset: 0xFFC2, size: 0x8, addend: 0x0, symName: __ZN7Matroid9swapRowsAEii, symObjAddr: 0x174, symBinAddr: 0x100003390, symSize: 0xEC }
  - { offsetInCU: 0x1003E, offset: 0x1003E, size: 0x8, addend: 0x0, symName: __ZNSt3__16vectorINS0_IiNS_9allocatorIiEEEENS1_IS3_EEEixB7v160006Em, symObjAddr: 0x260, symBinAddr: 0x10000347C, symSize: 0x2C }
  - { offsetInCU: 0x10074, offset: 0x10074, size: 0x8, addend: 0x0, symName: __ZNSt3__16vectorIiNS_9allocatorIiEEEixB7v160006Em, symObjAddr: 0x28C, symBinAddr: 0x1000034A8, symSize: 0x24 }
  - { offsetInCU: 0x100AA, offset: 0x100AA, size: 0x8, addend: 0x0, symName: __ZN7Matroid16is_A_independentEv, symObjAddr: 0x2B0, symBinAddr: 0x1000034CC, symSize: 0x3D8 }
  - { offsetInCU: 0x101DF, offset: 0x101DF, size: 0x8, addend: 0x0, symName: __ZNKSt3__16vectorINS0_IiNS_9allocatorIiEEEENS1_IS3_EEE4sizeB7v160006Ev, symObjAddr: 0x688, symBinAddr: 0x1000038A4, symSize: 0x28 }
  - { offsetInCU: 0x10203, offset: 0x10203, size: 0x8, addend: 0x0, symName: __ZNSt3__16vectorIiNS_9allocatorIiEEE5beginB7v160006Ev, symObjAddr: 0x6B0, symBinAddr: 0x1000038CC, symSize: 0x30 }
  - { offsetInCU: 0x10229, offset: 0x10229, size: 0x8, addend: 0x0, symName: __ZNSt3__16vectorIiNS_9allocatorIiEEE3endB7v160006Ev, symObjAddr: 0x6E0, symBinAddr: 0x1000038FC, symSize: 0x30 }
  - { offsetInCU: 0x10250, offset: 0x10250, size: 0x8, addend: 0x0, symName: __ZNKSt3__111__wrap_iterIPiEdeB7v160006Ev, symObjAddr: 0x744, symBinAddr: 0x100003960, symSize: 0x18 }
  - { offsetInCU: 0x10275, offset: 0x10275, size: 0x8, addend: 0x0, symName: __ZNSt3__111__wrap_iterIPiEppB7v160006Ev, symObjAddr: 0x75C, symBinAddr: 0x100003978, symSize: 0x20 }
  - { offsetInCU: 0x1029A, offset: 0x1029A, size: 0x8, addend: 0x0, symName: __ZN7Matroid4mwisEv, symObjAddr: 0x77C, symBinAddr: 0x100003998, symSize: 0x158 }
  - { offsetInCU: 0x102F0, offset: 0x102F0, size: 0x8, addend: 0x0, symName: __ZNKSt3__114priority_queueINS_4pairIxNS_6vectorIiNS_9allocatorIiEEEEEENS2_IS6_NS3_IS6_EEEENS_4lessIS6_EEE5emptyB7v160006Ev, symObjAddr: 0x8D4, symBinAddr: 0x100003AF0, symSize: 0x28 }
  - { offsetInCU: 0x10315, offset: 0x10315, size: 0x8, addend: 0x0, symName: __ZNKSt3__114priority_queueINS_4pairIxNS_6vectorIiNS_9allocatorIiEEEEEENS2_IS6_NS3_IS6_EEEENS_4lessIS6_EEE3topB7v160006Ev, symObjAddr: 0x8FC, symBinAddr: 0x100003B18, symSize: 0x24 }
  - { offsetInCU: 0x1033A, offset: 0x1033A, size: 0x8, addend: 0x0, symName: __ZNSt3__16vectorIiNS_9allocatorIiEEEC1ERKS3_, symObjAddr: 0x920, symBinAddr: 0x100003B3C, symSize: 0x34 }
  - { offsetInCU: 0x10373, offset: 0x10373, size: 0x8, addend: 0x0, symName: __ZNSt3__114priority_queueINS_4pairIxNS_6vectorIiNS_9allocatorIiEEEEEENS2_IS6_NS3_IS6_EEEENS_4lessIS6_EEE3popEv, symObjAddr: 0x954, symBinAddr: 0x100003B70, symSize: 0x50 }
  - { offsetInCU: 0x10399, offset: 0x10399, size: 0x8, addend: 0x0, symName: __ZNSt3__16vectorINS0_IiNS_9allocatorIiEEEENS1_IS3_EEE9push_backB7v160006ERKS3_, symObjAddr: 0x9A4, symBinAddr: 0x100003BC0, symSize: 0x6C }
  - { offsetInCU: 0x103CE, offset: 0x103CE, size: 0x8, addend: 0x0, symName: __ZNSt3__16vectorINS0_IiNS_9allocatorIiEEEENS1_IS3_EEE8pop_backEv, symObjAddr: 0xA10, symBinAddr: 0x100003C2C, symSize: 0x2C }
  - { offsetInCU: 0x103F5, offset: 0x103F5, size: 0x8, addend: 0x0, symName: __ZNSt3__16vectorIiNS_9allocatorIiEEED1B7v160006Ev, symObjAddr: 0xA3C, symBinAddr: 0x100003C58, symSize: 0x2C }
  - { offsetInCU: 0x1041E, offset: 0x1041E, size: 0x8, addend: 0x0, symName: _main, symObjAddr: 0xA68, symBinAddr: 0x100003C84, symSize: 0x278 }
  - { offsetInCU: 0x104E1, offset: 0x104E1, size: 0x8, addend: 0x0, symName: __ZNSt3__16vectorIiNS_9allocatorIiEEEC1B7v160006Ev, symObjAddr: 0xCE0, symBinAddr: 0x100003EFC, symSize: 0x2C }
  - { offsetInCU: 0x10509, offset: 0x10509, size: 0x8, addend: 0x0, symName: __ZNSt3__16vectorIiNS_9allocatorIiEEE9push_backB7v160006ERKi, symObjAddr: 0xD0C, symBinAddr: 0x100003F28, symSize: 0x6C }
  - { offsetInCU: 0x1053F, offset: 0x1053F, size: 0x8, addend: 0x0, symName: __ZNSt3__14pairIxNS_6vectorIiNS_9allocatorIiEEEEED1Ev, symObjAddr: 0xDB8, symBinAddr: 0x100003FD4, symSize: 0x2C }
  - { offsetInCU: 0x1061A, offset: 0x1061A, size: 0x8, addend: 0x0, symName: __ZNSt3__113basic_ostreamIcNS_11char_traitsIcEEElsB7v160006EPFRS3_S4_E, symObjAddr: 0xDE4, symBinAddr: 0x100004000, symSize: 0x2C }
  - { offsetInCU: 0x1064D, offset: 0x1064D, size: 0x8, addend: 0x0, symName: __ZN7MatroidD1Ev, symObjAddr: 0xE68, symBinAddr: 0x100004084, symSize: 0x2C }
  - { offsetInCU: 0x10678, offset: 0x10678, size: 0x8, addend: 0x0, symName: __ZNKSt3__111__wrap_iterIPiE4baseB7v160006Ev, symObjAddr: 0xEDC, symBinAddr: 0x1000040F8, symSize: 0x18 }
  - { offsetInCU: 0x1069D, offset: 0x1069D, size: 0x8, addend: 0x0, symName: __ZNSt3__14pairIxNS_6vectorIiNS_9allocatorIiEEEEED2Ev, symObjAddr: 0xEF4, symBinAddr: 0x100004110, symSize: 0x30 }
  - { offsetInCU: 0x106C8, offset: 0x106C8, size: 0x8, addend: 0x0, symName: __ZN7MatroidD2Ev, symObjAddr: 0xF24, symBinAddr: 0x100004140, symSize: 0x3C }
  - { offsetInCU: 0x106F3, offset: 0x106F3, size: 0x8, addend: 0x0, symName: __ZNSt3__16vectorINS0_IiNS_9allocatorIiEEEENS1_IS3_EEED1B7v160006Ev, symObjAddr: 0xF60, symBinAddr: 0x10000417C, symSize: 0x2C }
  - { offsetInCU: 0x1071C, offset: 0x1071C, size: 0x8, addend: 0x0, symName: __ZNSt3__114priority_queueINS_4pairIxNS_6vectorIiNS_9allocatorIiEEEEEENS2_IS6_NS3_IS6_EEEENS_4lessIS6_EEED1Ev, symObjAddr: 0xF8C, symBinAddr: 0x1000041A8, symSize: 0x2C }
  - { offsetInCU: 0x10748, offset: 0x10748, size: 0x8, addend: 0x0, symName: __ZNSt3__16vectorINS0_IiNS_9allocatorIiEEEENS1_IS3_EEED2B7v160006Ev, symObjAddr: 0xFB8, symBinAddr: 0x1000041D4, symSize: 0x44 }
  - { offsetInCU: 0x10771, offset: 0x10771, size: 0x8, addend: 0x0, symName: __ZNSt3__16vectorINS0_IiNS_9allocatorIiEEEENS1_IS3_EEE16__destroy_vectorC1ERS5_, symObjAddr: 0xFFC, symBinAddr: 0x100004218, symSize: 0x34 }
  - { offsetInCU: 0x107A9, offset: 0x107A9, size: 0x8, addend: 0x0, symName: __ZNSt3__16vectorINS0_IiNS_9allocatorIiEEEENS1_IS3_EEE16__destroy_vectorclB7v160006Ev, symObjAddr: 0x103C, symBinAddr: 0x100004258, symSize: 0x9C }
  - { offsetInCU: 0x107CE, offset: 0x107CE, size: 0x8, addend: 0x0, symName: __ZNSt3__16vectorINS0_IiNS_9allocatorIiEEEENS1_IS3_EEE16__destroy_vectorC2ERS5_, symObjAddr: 0x10D8, symBinAddr: 0x1000042F4, symSize: 0x20 }
  - { offsetInCU: 0x10806, offset: 0x10806, size: 0x8, addend: 0x0, symName: __ZNKSt3__16vectorINS0_IiNS_9allocatorIiEEEENS1_IS3_EEE17__annotate_deleteB7v160006Ev, symObjAddr: 0x10F8, symBinAddr: 0x100004314, symSize: 0xD4 }
  - { offsetInCU: 0x1082B, offset: 0x1082B, size: 0x8, addend: 0x0, symName: __ZNSt3__16vectorINS0_IiNS_9allocatorIiEEEENS1_IS3_EEE7__clearB7v160006Ev, symObjAddr: 0x11DC, symBinAddr: 0x1000043F8, symSize: 0x28 }
  - { offsetInCU: 0x10850, offset: 0x10850, size: 0x8, addend: 0x0, symName: __ZNSt3__116allocator_traitsINS_9allocatorINS_6vectorIiNS1_IiEEEEEEE10deallocateB7v160006ERS5_PS4_m, symObjAddr: 0x1204, symBinAddr: 0x100004420, symSize: 0x34 }
  - { offsetInCU: 0x10892, offset: 0x10892, size: 0x8, addend: 0x0, symName: __ZNSt3__16vectorINS0_IiNS_9allocatorIiEEEENS1_IS3_EEE7__allocB7v160006Ev, symObjAddr: 0x1238, symBinAddr: 0x100004454, symSize: 0x28 }
  - { offsetInCU: 0x108B7, offset: 0x108B7, size: 0x8, addend: 0x0, symName: __ZNKSt3__16vectorINS0_IiNS_9allocatorIiEEEENS1_IS3_EEE8capacityB7v160006Ev, symObjAddr: 0x1260, symBinAddr: 0x10000447C, symSize: 0x40 }
  - { offsetInCU: 0x108DC, offset: 0x108DC, size: 0x8, addend: 0x0, symName: __ZNKSt3__16vectorINS0_IiNS_9allocatorIiEEEENS1_IS3_EEE31__annotate_contiguous_containerB7v160006EPKvS7_S7_S7_, symObjAddr: 0x12A0, symBinAddr: 0x1000044BC, symSize: 0x20 }
  - { offsetInCU: 0x1092D, offset: 0x1092D, size: 0x8, addend: 0x0, symName: __ZNKSt3__16vectorINS0_IiNS_9allocatorIiEEEENS1_IS3_EEE4dataB7v160006Ev, symObjAddr: 0x12C0, symBinAddr: 0x1000044DC, symSize: 0x28 }
  - { offsetInCU: 0x10952, offset: 0x10952, size: 0x8, addend: 0x0, symName: __ZNSt3__16vectorINS0_IiNS_9allocatorIiEEEENS1_IS3_EEE22__base_destruct_at_endB7v160006EPS3_, symObjAddr: 0x12FC, symBinAddr: 0x100004518, symSize: 0x8C }
  - { offsetInCU: 0x10995, offset: 0x10995, size: 0x8, addend: 0x0, symName: __ZNSt3__116allocator_traitsINS_9allocatorINS_6vectorIiNS1_IiEEEEEEE7destroyB7v160006IS4_vEEvRS5_PT_, symObjAddr: 0x1388, symBinAddr: 0x1000045A4, symSize: 0x2C }
  - { offsetInCU: 0x109D2, offset: 0x109D2, size: 0x8, addend: 0x0, symName: __ZNSt3__19allocatorINS_6vectorIiNS0_IiEEEEE7destroyB7v160006EPS3_, symObjAddr: 0x13B4, symBinAddr: 0x1000045D0, symSize: 0x28 }
  - { offsetInCU: 0x10A05, offset: 0x10A05, size: 0x8, addend: 0x0, symName: __ZNSt3__19allocatorINS_6vectorIiNS0_IiEEEEE10deallocateB7v160006EPS3_m, symObjAddr: 0x13DC, symBinAddr: 0x1000045F8, symSize: 0x44 }
  - { offsetInCU: 0x10A46, offset: 0x10A46, size: 0x8, addend: 0x0, symName: __ZNSt3__117__compressed_pairIPNS_6vectorIiNS_9allocatorIiEEEENS2_IS4_EEE6secondB7v160006Ev, symObjAddr: 0x149C, symBinAddr: 0x1000046B8, symSize: 0x24 }
  - { offsetInCU: 0x10A6B, offset: 0x10A6B, size: 0x8, addend: 0x0, symName: __ZNSt3__122__compressed_pair_elemINS_9allocatorINS_6vectorIiNS1_IiEEEEEELi1ELb1EE5__getB7v160006Ev, symObjAddr: 0x14C0, symBinAddr: 0x1000046DC, symSize: 0x14 }
  - { offsetInCU: 0x10A90, offset: 0x10A90, size: 0x8, addend: 0x0, symName: __ZNKSt3__16vectorINS0_IiNS_9allocatorIiEEEENS1_IS3_EEE9__end_capB7v160006Ev, symObjAddr: 0x14D4, symBinAddr: 0x1000046F0, symSize: 0x28 }
  - { offsetInCU: 0x10AB5, offset: 0x10AB5, size: 0x8, addend: 0x0, symName: __ZNKSt3__117__compressed_pairIPNS_6vectorIiNS_9allocatorIiEEEENS2_IS4_EEE5firstB7v160006Ev, symObjAddr: 0x14FC, symBinAddr: 0x100004718, symSize: 0x24 }
  - { offsetInCU: 0x10ADA, offset: 0x10ADA, size: 0x8, addend: 0x0, symName: __ZNKSt3__122__compressed_pair_elemIPNS_6vectorIiNS_9allocatorIiEEEELi0ELb0EE5__getB7v160006Ev, symObjAddr: 0x1520, symBinAddr: 0x10000473C, symSize: 0x14 }
  - { offsetInCU: 0x10AFF, offset: 0x10AFF, size: 0x8, addend: 0x0, symName: __ZNSt3__114priority_queueINS_4pairIxNS_6vectorIiNS_9allocatorIiEEEEEENS2_IS6_NS3_IS6_EEEENS_4lessIS6_EEED2Ev, symObjAddr: 0x1534, symBinAddr: 0x100004750, symSize: 0x2C }
  - { offsetInCU: 0x10B2B, offset: 0x10B2B, size: 0x8, addend: 0x0, symName: __ZNSt3__16vectorINS_4pairIxNS0_IiNS_9allocatorIiEEEEEENS2_IS5_EEED1B7v160006Ev, symObjAddr: 0x1560, symBinAddr: 0x10000477C, symSize: 0x2C }
  - { offsetInCU: 0x10B54, offset: 0x10B54, size: 0x8, addend: 0x0, symName: __ZNSt3__16vectorINS_4pairIxNS0_IiNS_9allocatorIiEEEEEENS2_IS5_EEED2B7v160006Ev, symObjAddr: 0x158C, symBinAddr: 0x1000047A8, symSize: 0x44 }
  - { offsetInCU: 0x10B7D, offset: 0x10B7D, size: 0x8, addend: 0x0, symName: __ZNSt3__16vectorINS_4pairIxNS0_IiNS_9allocatorIiEEEEEENS2_IS5_EEE16__destroy_vectorC1ERS7_, symObjAddr: 0x15D0, symBinAddr: 0x1000047EC, symSize: 0x34 }
  - { offsetInCU: 0x10BB5, offset: 0x10BB5, size: 0x8, addend: 0x0, symName: __ZNSt3__16vectorINS_4pairIxNS0_IiNS_9allocatorIiEEEEEENS2_IS5_EEE16__destroy_vectorclB7v160006Ev, symObjAddr: 0x1604, symBinAddr: 0x100004820, symSize: 0x9C }
  - { offsetInCU: 0x10BDA, offset: 0x10BDA, size: 0x8, addend: 0x0, symName: __ZNSt3__16vectorINS_4pairIxNS0_IiNS_9allocatorIiEEEEEENS2_IS5_EEE16__destroy_vectorC2ERS7_, symObjAddr: 0x16A0, symBinAddr: 0x1000048BC, symSize: 0x20 }
  - { offsetInCU: 0x10C12, offset: 0x10C12, size: 0x8, addend: 0x0, symName: __ZNKSt3__16vectorINS_4pairIxNS0_IiNS_9allocatorIiEEEEEENS2_IS5_EEE17__annotate_deleteB7v160006Ev, symObjAddr: 0x16C0, symBinAddr: 0x1000048DC, symSize: 0xB8 }
  - { offsetInCU: 0x10C37, offset: 0x10C37, size: 0x8, addend: 0x0, symName: __ZNSt3__16vectorINS_4pairIxNS0_IiNS_9allocatorIiEEEEEENS2_IS5_EEE7__clearB7v160006Ev, symObjAddr: 0x1788, symBinAddr: 0x1000049A4, symSize: 0x28 }
  - { offsetInCU: 0x10C5C, offset: 0x10C5C, size: 0x8, addend: 0x0, symName: __ZNSt3__116allocator_traitsINS_9allocatorINS_4pairIxNS_6vectorIiNS1_IiEEEEEEEEE10deallocateB7v160006ERS7_PS6_m, symObjAddr: 0x17B0, symBinAddr: 0x1000049CC, symSize: 0x34 }
  - { offsetInCU: 0x10C9E, offset: 0x10C9E, size: 0x8, addend: 0x0, symName: __ZNSt3__16vectorINS_4pairIxNS0_IiNS_9allocatorIiEEEEEENS2_IS5_EEE7__allocB7v160006Ev, symObjAddr: 0x17E4, symBinAddr: 0x100004A00, symSize: 0x28 }
  - { offsetInCU: 0x10CC3, offset: 0x10CC3, size: 0x8, addend: 0x0, symName: __ZNKSt3__16vectorINS_4pairIxNS0_IiNS_9allocatorIiEEEEEENS2_IS5_EEE8capacityB7v160006Ev, symObjAddr: 0x180C, symBinAddr: 0x100004A28, symSize: 0x40 }
  - { offsetInCU: 0x10CE8, offset: 0x10CE8, size: 0x8, addend: 0x0, symName: __ZNKSt3__16vectorINS_4pairIxNS0_IiNS_9allocatorIiEEEEEENS2_IS5_EEE31__annotate_contiguous_containerB7v160006EPKvS9_S9_S9_, symObjAddr: 0x184C, symBinAddr: 0x100004A68, symSize: 0x20 }
  - { offsetInCU: 0x10D39, offset: 0x10D39, size: 0x8, addend: 0x0, symName: __ZNKSt3__16vectorINS_4pairIxNS0_IiNS_9allocatorIiEEEEEENS2_IS5_EEE4dataB7v160006Ev, symObjAddr: 0x186C, symBinAddr: 0x100004A88, symSize: 0x28 }
  - { offsetInCU: 0x10D5E, offset: 0x10D5E, size: 0x8, addend: 0x0, symName: __ZNKSt3__16vectorINS_4pairIxNS0_IiNS_9allocatorIiEEEEEENS2_IS5_EEE4sizeB7v160006Ev, symObjAddr: 0x1894, symBinAddr: 0x100004AB0, symSize: 0x28 }
  - { offsetInCU: 0x10D83, offset: 0x10D83, size: 0x8, addend: 0x0, symName: __ZNSt3__16vectorINS_4pairIxNS0_IiNS_9allocatorIiEEEEEENS2_IS5_EEE22__base_destruct_at_endB7v160006EPS5_, symObjAddr: 0x18D0, symBinAddr: 0x100004AEC, symSize: 0x8C }
  - { offsetInCU: 0x10DC6, offset: 0x10DC6, size: 0x8, addend: 0x0, symName: __ZNSt3__116allocator_traitsINS_9allocatorINS_4pairIxNS_6vectorIiNS1_IiEEEEEEEEE7destroyB7v160006IS6_vEEvRS7_PT_, symObjAddr: 0x195C, symBinAddr: 0x100004B78, symSize: 0x2C }
  - { offsetInCU: 0x10E03, offset: 0x10E03, size: 0x8, addend: 0x0, symName: __ZNSt3__19allocatorINS_4pairIxNS_6vectorIiNS0_IiEEEEEEE7destroyB7v160006EPS5_, symObjAddr: 0x1988, symBinAddr: 0x100004BA4, symSize: 0x28 }
  - { offsetInCU: 0x10E36, offset: 0x10E36, size: 0x8, addend: 0x0, symName: __ZNSt3__19allocatorINS_4pairIxNS_6vectorIiNS0_IiEEEEEEE10deallocateB7v160006EPS5_m, symObjAddr: 0x19B0, symBinAddr: 0x100004BCC, symSize: 0x40 }
  - { offsetInCU: 0x10E77, offset: 0x10E77, size: 0x8, addend: 0x0, symName: __ZNSt3__117__compressed_pairIPNS_4pairIxNS_6vectorIiNS_9allocatorIiEEEEEENS3_IS6_EEE6secondB7v160006Ev, symObjAddr: 0x19F0, symBinAddr: 0x100004C0C, symSize: 0x24 }
  - { offsetInCU: 0x10E9C, offset: 0x10E9C, size: 0x8, addend: 0x0, symName: __ZNSt3__122__compressed_pair_elemINS_9allocatorINS_4pairIxNS_6vectorIiNS1_IiEEEEEEEELi1ELb1EE5__getB7v160006Ev, symObjAddr: 0x1A14, symBinAddr: 0x100004C30, symSize: 0x14 }
  - { offsetInCU: 0x10EC1, offset: 0x10EC1, size: 0x8, addend: 0x0, symName: __ZNKSt3__16vectorINS_4pairIxNS0_IiNS_9allocatorIiEEEEEENS2_IS5_EEE9__end_capB7v160006Ev, symObjAddr: 0x1A28, symBinAddr: 0x100004C44, symSize: 0x28 }
  - { offsetInCU: 0x10EE6, offset: 0x10EE6, size: 0x8, addend: 0x0, symName: __ZNKSt3__117__compressed_pairIPNS_4pairIxNS_6vectorIiNS_9allocatorIiEEEEEENS3_IS6_EEE5firstB7v160006Ev, symObjAddr: 0x1A50, symBinAddr: 0x100004C6C, symSize: 0x24 }
  - { offsetInCU: 0x10F0B, offset: 0x10F0B, size: 0x8, addend: 0x0, symName: __ZNKSt3__122__compressed_pair_elemIPNS_4pairIxNS_6vectorIiNS_9allocatorIiEEEEEELi0ELb0EE5__getB7v160006Ev, symObjAddr: 0x1A74, symBinAddr: 0x100004C90, symSize: 0x14 }
  - { offsetInCU: 0x10F30, offset: 0x10F30, size: 0x8, addend: 0x0, symName: __ZNSt3__114priority_queueINS_4pairIxNS_6vectorIiNS_9allocatorIiEEEEEENS2_IS6_NS3_IS6_EEEENS_4lessIS6_EEEC2B7v160006Ev, symObjAddr: 0x1A88, symBinAddr: 0x100004CA4, symSize: 0x2C }
  - { offsetInCU: 0x10F59, offset: 0x10F59, size: 0x8, addend: 0x0, symName: __ZNSt3__16vectorINS_4pairIxNS0_IiNS_9allocatorIiEEEEEENS2_IS5_EEEC1B7v160006Ev, symObjAddr: 0x1AB4, symBinAddr: 0x100004CD0, symSize: 0x2C }
  - { offsetInCU: 0x10F82, offset: 0x10F82, size: 0x8, addend: 0x0, symName: __ZNSt3__16vectorINS_4pairIxNS0_IiNS_9allocatorIiEEEEEENS2_IS5_EEEC2B7v160006Ev, symObjAddr: 0x1AE0, symBinAddr: 0x100004CFC, symSize: 0x58 }
  - { offsetInCU: 0x10FB5, offset: 0x10FB5, size: 0x8, addend: 0x0, symName: __ZNSt3__117__compressed_pairIPNS_4pairIxNS_6vectorIiNS_9allocatorIiEEEEEENS3_IS6_EEEC1B7v160006IDnNS_18__default_init_tagEEEOT_OT0_, symObjAddr: 0x1B38, symBinAddr: 0x100004D54, symSize: 0x3C }
  - { offsetInCU: 0x1100C, offset: 0x1100C, size: 0x8, addend: 0x0, symName: __ZNSt3__117__compressed_pairIPNS_4pairIxNS_6vectorIiNS_9allocatorIiEEEEEENS3_IS6_EEEC2B7v160006IDnNS_18__default_init_tagEEEOT_OT0_, symObjAddr: 0x1B84, symBinAddr: 0x100004DA0, symSize: 0x40 }
  - { offsetInCU: 0x11063, offset: 0x11063, size: 0x8, addend: 0x0, symName: __ZNSt3__122__compressed_pair_elemIPNS_4pairIxNS_6vectorIiNS_9allocatorIiEEEEEELi0ELb0EEC2B7v160006IDnvEEOT_, symObjAddr: 0x1BC4, symBinAddr: 0x100004DE0, symSize: 0x1C }
  - { offsetInCU: 0x110A4, offset: 0x110A4, size: 0x8, addend: 0x0, symName: __ZNSt3__122__compressed_pair_elemINS_9allocatorINS_4pairIxNS_6vectorIiNS1_IiEEEEEEEELi1ELb1EEC2B7v160006ENS_18__default_init_tagE, symObjAddr: 0x1BE0, symBinAddr: 0x100004DFC, symSize: 0x2C }
  - { offsetInCU: 0x110D8, offset: 0x110D8, size: 0x8, addend: 0x0, symName: __ZNSt3__19allocatorINS_4pairIxNS_6vectorIiNS0_IiEEEEEEEC2B7v160006Ev, symObjAddr: 0x1C0C, symBinAddr: 0x100004E28, symSize: 0x2C }
  - { offsetInCU: 0x11101, offset: 0x11101, size: 0x8, addend: 0x0, symName: __ZNSt3__116__non_trivial_ifILb1ENS_9allocatorINS_4pairIxNS_6vectorIiNS1_IiEEEEEEEEEC2B7v160006Ev, symObjAddr: 0x1C38, symBinAddr: 0x100004E54, symSize: 0x14 }
  - { offsetInCU: 0x1112A, offset: 0x1112A, size: 0x8, addend: 0x0, symName: __ZNSt3__16vectorINS0_IiNS_9allocatorIiEEEENS1_IS3_EEEC2B7v160006Ev, symObjAddr: 0x1C4C, symBinAddr: 0x100004E68, symSize: 0x58 }
  - { offsetInCU: 0x11153, offset: 0x11153, size: 0x8, addend: 0x0, symName: __ZNSt3__117__compressed_pairIPNS_6vectorIiNS_9allocatorIiEEEENS2_IS4_EEEC1B7v160006IDnNS_18__default_init_tagEEEOT_OT0_, symObjAddr: 0x1CA4, symBinAddr: 0x100004EC0, symSize: 0x3C }
  - { offsetInCU: 0x111AA, offset: 0x111AA, size: 0x8, addend: 0x0, symName: __ZNSt3__117__compressed_pairIPNS_6vectorIiNS_9allocatorIiEEEENS2_IS4_EEEC2B7v160006IDnNS_18__default_init_tagEEEOT_OT0_, symObjAddr: 0x1CF0, symBinAddr: 0x100004F0C, symSize: 0x40 }
  - { offsetInCU: 0x11201, offset: 0x11201, size: 0x8, addend: 0x0, symName: __ZNSt3__122__compressed_pair_elemIPNS_6vectorIiNS_9allocatorIiEEEELi0ELb0EEC2B7v160006IDnvEEOT_, symObjAddr: 0x1D30, symBinAddr: 0x100004F4C, symSize: 0x1C }
  - { offsetInCU: 0x11242, offset: 0x11242, size: 0x8, addend: 0x0, symName: __ZNSt3__122__compressed_pair_elemINS_9allocatorINS_6vectorIiNS1_IiEEEEEELi1ELb1EEC2B7v160006ENS_18__default_init_tagE, symObjAddr: 0x1D4C, symBinAddr: 0x100004F68, symSize: 0x2C }
  - { offsetInCU: 0x11276, offset: 0x11276, size: 0x8, addend: 0x0, symName: __ZNSt3__19allocatorINS_6vectorIiNS0_IiEEEEEC2B7v160006Ev, symObjAddr: 0x1D78, symBinAddr: 0x100004F94, symSize: 0x2C }
  - { offsetInCU: 0x1129F, offset: 0x1129F, size: 0x8, addend: 0x0, symName: __ZNSt3__116__non_trivial_ifILb1ENS_9allocatorINS_6vectorIiNS1_IiEEEEEEEC2B7v160006Ev, symObjAddr: 0x1DA4, symBinAddr: 0x100004FC0, symSize: 0x14 }
  - { offsetInCU: 0x112C7, offset: 0x112C7, size: 0x8, addend: 0x0, symName: __ZNSt3__16vectorINS_4pairIxNS0_IiNS_9allocatorIiEEEEEENS2_IS5_EEE9push_backB7v160006ERKS5_, symObjAddr: 0x1DB8, symBinAddr: 0x100004FD4, symSize: 0x6C }
  - { offsetInCU: 0x112FC, offset: 0x112FC, size: 0x8, addend: 0x0, symName: __ZNSt3__16vectorINS_4pairIxNS0_IiNS_9allocatorIiEEEEEENS2_IS5_EEE5beginB7v160006Ev, symObjAddr: 0x1E64, symBinAddr: 0x100005080, symSize: 0x30 }
  - { offsetInCU: 0x11322, offset: 0x11322, size: 0x8, addend: 0x0, symName: __ZNSt3__16vectorINS_4pairIxNS0_IiNS_9allocatorIiEEEEEENS2_IS5_EEE3endB7v160006Ev, symObjAddr: 0x1E94, symBinAddr: 0x1000050B0, symSize: 0x30 }
  - { offsetInCU: 0x11349, offset: 0x11349, size: 0x8, addend: 0x0, symName: __ZNSt3__16vectorINS_4pairIxNS0_IiNS_9allocatorIiEEEEEENS2_IS5_EEE9__end_capB7v160006Ev, symObjAddr: 0x1EC4, symBinAddr: 0x1000050E0, symSize: 0x28 }
  - { offsetInCU: 0x1136E, offset: 0x1136E, size: 0x8, addend: 0x0, symName: __ZNSt3__16vectorINS_4pairIxNS0_IiNS_9allocatorIiEEEEEENS2_IS5_EEE22__construct_one_at_endB7v160006IJRKS5_EEEvDpOT_, symObjAddr: 0x1EEC, symBinAddr: 0x100005108, symSize: 0x90 }
  - { offsetInCU: 0x113BB, offset: 0x113BB, size: 0x8, addend: 0x0, symName: __ZNSt3__16vectorINS_4pairIxNS0_IiNS_9allocatorIiEEEEEENS2_IS5_EEE21__push_back_slow_pathIRKS5_EEvOT_, symObjAddr: 0x1F7C, symBinAddr: 0x100005198, symSize: 0xD8 }
  - { offsetInCU: 0x11418, offset: 0x11418, size: 0x8, addend: 0x0, symName: __ZNSt3__117__compressed_pairIPNS_4pairIxNS_6vectorIiNS_9allocatorIiEEEEEENS3_IS6_EEE5firstB7v160006Ev, symObjAddr: 0x2054, symBinAddr: 0x100005270, symSize: 0x24 }
  - { offsetInCU: 0x1143D, offset: 0x1143D, size: 0x8, addend: 0x0, symName: __ZNSt3__122__compressed_pair_elemIPNS_4pairIxNS_6vectorIiNS_9allocatorIiEEEEEELi0ELb0EE5__getB7v160006Ev, symObjAddr: 0x2078, symBinAddr: 0x100005294, symSize: 0x14 }
  - { offsetInCU: 0x1147B, offset: 0x1147B, size: 0x8, addend: 0x0, symName: __ZNSt3__16vectorINS_4pairIxNS0_IiNS_9allocatorIiEEEEEENS2_IS5_EEE21_ConstructTransactionC1B7v160006ERS7_m, symObjAddr: 0x208C, symBinAddr: 0x1000052A8, symSize: 0x3C }
  - { offsetInCU: 0x114C2, offset: 0x114C2, size: 0x8, addend: 0x0, symName: __ZNSt3__116allocator_traitsINS_9allocatorINS_4pairIxNS_6vectorIiNS1_IiEEEEEEEEE9constructB7v160006IS6_JRKS6_EvEEvRS7_PT_DpOT0_, symObjAddr: 0x20C8, symBinAddr: 0x1000052E4, symSize: 0x34 }
  - { offsetInCU: 0x11519, offset: 0x11519, size: 0x8, addend: 0x0, symName: __ZNSt3__16vectorINS_4pairIxNS0_IiNS_9allocatorIiEEEEEENS2_IS5_EEE21_ConstructTransactionD1B7v160006Ev, symObjAddr: 0x20FC, symBinAddr: 0x100005318, symSize: 0x2C }
  - { offsetInCU: 0x11542, offset: 0x11542, size: 0x8, addend: 0x0, symName: __ZNSt3__16vectorINS_4pairIxNS0_IiNS_9allocatorIiEEEEEENS2_IS5_EEE21_ConstructTransactionC2B7v160006ERS7_m, symObjAddr: 0x2128, symBinAddr: 0x100005344, symSize: 0x44 }
  - { offsetInCU: 0x11589, offset: 0x11589, size: 0x8, addend: 0x0, symName: __ZNSt3__19allocatorINS_4pairIxNS_6vectorIiNS0_IiEEEEEEE9constructB7v160006IS5_JRKS5_EEEvPT_DpOT0_, symObjAddr: 0x216C, symBinAddr: 0x100005388, symSize: 0x30 }
  - { offsetInCU: 0x115DE, offset: 0x115DE, size: 0x8, addend: 0x0, symName: __ZNSt3__14pairIxNS_6vectorIiNS_9allocatorIiEEEEEC1ERKS5_, symObjAddr: 0x219C, symBinAddr: 0x1000053B8, symSize: 0x34 }
  - { offsetInCU: 0x11612, offset: 0x11612, size: 0x8, addend: 0x0, symName: __ZNSt3__14pairIxNS_6vectorIiNS_9allocatorIiEEEEEC2ERKS5_, symObjAddr: 0x21D0, symBinAddr: 0x1000053EC, symSize: 0x48 }
  - { offsetInCU: 0x11646, offset: 0x11646, size: 0x8, addend: 0x0, symName: __ZNSt3__16vectorINS_4pairIxNS0_IiNS_9allocatorIiEEEEEENS2_IS5_EEE21_ConstructTransactionD2B7v160006Ev, symObjAddr: 0x2218, symBinAddr: 0x100005434, symSize: 0x20 }
  - { offsetInCU: 0x1166E, offset: 0x1166E, size: 0x8, addend: 0x0, symName: __ZNKSt3__16vectorINS_4pairIxNS0_IiNS_9allocatorIiEEEEEENS2_IS5_EEE11__recommendB7v160006Em, symObjAddr: 0x2238, symBinAddr: 0x100005454, symSize: 0xB4 }
  - { offsetInCU: 0x116C2, offset: 0x116C2, size: 0x8, addend: 0x0, symName: __ZNSt3__114__split_bufferINS_4pairIxNS_6vectorIiNS_9allocatorIiEEEEEERNS3_IS6_EEEC1EmmS8_, symObjAddr: 0x22EC, symBinAddr: 0x100005508, symSize: 0x44 }
  - { offsetInCU: 0x11717, offset: 0x11717, size: 0x8, addend: 0x0, symName: __ZNSt3__114__split_bufferINS_4pairIxNS_6vectorIiNS_9allocatorIiEEEEEERNS3_IS6_EEED1Ev, symObjAddr: 0x2448, symBinAddr: 0x100005664, symSize: 0x2C }
  - { offsetInCU: 0x11741, offset: 0x11741, size: 0x8, addend: 0x0, symName: __ZNKSt3__16vectorINS_4pairIxNS0_IiNS_9allocatorIiEEEEEENS2_IS5_EEE8max_sizeEv, symObjAddr: 0x2474, symBinAddr: 0x100005690, symSize: 0x60 }
  - { offsetInCU: 0x11768, offset: 0x11768, size: 0x8, addend: 0x0, symName: __ZNKSt3__16vectorINS_4pairIxNS0_IiNS_9allocatorIiEEEEEENS2_IS5_EEE20__throw_length_errorB7v160006Ev, symObjAddr: 0x24D4, symBinAddr: 0x1000056F0, symSize: 0x1C }
  - { offsetInCU: 0x11797, offset: 0x11797, size: 0x8, addend: 0x0, symName: __ZNSt3__116allocator_traitsINS_9allocatorINS_4pairIxNS_6vectorIiNS1_IiEEEEEEEEE8max_sizeB7v160006IS7_vEEmRKS7_, symObjAddr: 0x2548, symBinAddr: 0x100005764, symSize: 0x24 }
  - { offsetInCU: 0x117C5, offset: 0x117C5, size: 0x8, addend: 0x0, symName: __ZNKSt3__16vectorINS_4pairIxNS0_IiNS_9allocatorIiEEEEEENS2_IS5_EEE7__allocB7v160006Ev, symObjAddr: 0x256C, symBinAddr: 0x100005788, symSize: 0x28 }
  - { offsetInCU: 0x117EA, offset: 0x117EA, size: 0x8, addend: 0x0, symName: __ZNSt3__114numeric_limitsIlE3maxB7v160006Ev, symObjAddr: 0x2594, symBinAddr: 0x1000057B0, symSize: 0x14 }
  - { offsetInCU: 0x11812, offset: 0x11812, size: 0x8, addend: 0x0, symName: __ZNKSt3__16__lessImmEclB7v160006ERKmS3_, symObjAddr: 0x25FC, symBinAddr: 0x100005818, symSize: 0x34 }
  - { offsetInCU: 0x11853, offset: 0x11853, size: 0x8, addend: 0x0, symName: __ZNKSt3__19allocatorINS_4pairIxNS_6vectorIiNS0_IiEEEEEEE8max_sizeB7v160006Ev, symObjAddr: 0x2630, symBinAddr: 0x10000584C, symSize: 0x14 }
  - { offsetInCU: 0x11878, offset: 0x11878, size: 0x8, addend: 0x0, symName: __ZNKSt3__117__compressed_pairIPNS_4pairIxNS_6vectorIiNS_9allocatorIiEEEEEENS3_IS6_EEE6secondB7v160006Ev, symObjAddr: 0x2644, symBinAddr: 0x100005860, symSize: 0x24 }
  - { offsetInCU: 0x1189D, offset: 0x1189D, size: 0x8, addend: 0x0, symName: __ZNKSt3__122__compressed_pair_elemINS_9allocatorINS_4pairIxNS_6vectorIiNS1_IiEEEEEEEELi1ELb1EE5__getB7v160006Ev, symObjAddr: 0x2668, symBinAddr: 0x100005884, symSize: 0x14 }
  - { offsetInCU: 0x118C2, offset: 0x118C2, size: 0x8, addend: 0x0, symName: __ZNSt3__123__libcpp_numeric_limitsIlLb1EE3maxB7v160006Ev, symObjAddr: 0x267C, symBinAddr: 0x100005898, symSize: 0x8 }
  - { offsetInCU: 0x118D6, offset: 0x118D6, size: 0x8, addend: 0x0, symName: __ZNSt12length_errorC1B7v160006EPKc, symObjAddr: 0x26E8, symBinAddr: 0x100005904, symSize: 0x34 }
  - { offsetInCU: 0x1190D, offset: 0x1190D, size: 0x8, addend: 0x0, symName: __ZNSt12length_errorC2B7v160006EPKc, symObjAddr: 0x271C, symBinAddr: 0x100005938, symSize: 0x4C }
  - { offsetInCU: 0x11944, offset: 0x11944, size: 0x8, addend: 0x0, symName: __ZNSt3__114__split_bufferINS_4pairIxNS_6vectorIiNS_9allocatorIiEEEEEERNS3_IS6_EEEC2EmmS8_, symObjAddr: 0x27BC, symBinAddr: 0x1000059D8, symSize: 0xD4 }
  - { offsetInCU: 0x119B7, offset: 0x119B7, size: 0x8, addend: 0x0, symName: __ZNSt3__117__compressed_pairIPNS_4pairIxNS_6vectorIiNS_9allocatorIiEEEEEERNS3_IS6_EEEC1B7v160006IDnS9_EEOT_OT0_, symObjAddr: 0x2890, symBinAddr: 0x100005AAC, symSize: 0x3C }
  - { offsetInCU: 0x11A0E, offset: 0x11A0E, size: 0x8, addend: 0x0, symName: __ZNSt3__114__split_bufferINS_4pairIxNS_6vectorIiNS_9allocatorIiEEEEEERNS3_IS6_EEE7__allocB7v160006Ev, symObjAddr: 0x290C, symBinAddr: 0x100005B28, symSize: 0x28 }
  - { offsetInCU: 0x11A33, offset: 0x11A33, size: 0x8, addend: 0x0, symName: __ZNSt3__114__split_bufferINS_4pairIxNS_6vectorIiNS_9allocatorIiEEEEEERNS3_IS6_EEE9__end_capB7v160006Ev, symObjAddr: 0x2934, symBinAddr: 0x100005B50, symSize: 0x28 }
  - { offsetInCU: 0x11A58, offset: 0x11A58, size: 0x8, addend: 0x0, symName: __ZNSt3__117__compressed_pairIPNS_4pairIxNS_6vectorIiNS_9allocatorIiEEEEEERNS3_IS6_EEEC2B7v160006IDnS9_EEOT_OT0_, symObjAddr: 0x295C, symBinAddr: 0x100005B78, symSize: 0x48 }
  - { offsetInCU: 0x11AAF, offset: 0x11AAF, size: 0x8, addend: 0x0, symName: __ZNSt3__122__compressed_pair_elemIRNS_9allocatorINS_4pairIxNS_6vectorIiNS1_IiEEEEEEEELi1ELb0EEC2B7v160006IS8_vEEOT_, symObjAddr: 0x29A4, symBinAddr: 0x100005BC0, symSize: 0x20 }
  - { offsetInCU: 0x11AF0, offset: 0x11AF0, size: 0x8, addend: 0x0, symName: __ZNSt3__19allocatorINS_4pairIxNS_6vectorIiNS0_IiEEEEEEE8allocateB7v160006Em, symObjAddr: 0x29C4, symBinAddr: 0x100005BE0, symSize: 0x58 }
  - { offsetInCU: 0x11B23, offset: 0x11B23, size: 0x8, addend: 0x0, symName: __ZNSt3__117__compressed_pairIPNS_4pairIxNS_6vectorIiNS_9allocatorIiEEEEEERNS3_IS6_EEE6secondB7v160006Ev, symObjAddr: 0x2A9C, symBinAddr: 0x100005CB8, symSize: 0x28 }
  - { offsetInCU: 0x11B48, offset: 0x11B48, size: 0x8, addend: 0x0, symName: __ZNSt3__122__compressed_pair_elemIRNS_9allocatorINS_4pairIxNS_6vectorIiNS1_IiEEEEEEEELi1ELb0EE5__getB7v160006Ev, symObjAddr: 0x2AC4, symBinAddr: 0x100005CE0, symSize: 0x18 }
  - { offsetInCU: 0x11B6D, offset: 0x11B6D, size: 0x8, addend: 0x0, symName: __ZNSt3__117__compressed_pairIPNS_4pairIxNS_6vectorIiNS_9allocatorIiEEEEEERNS3_IS6_EEE5firstB7v160006Ev, symObjAddr: 0x2ADC, symBinAddr: 0x100005CF8, symSize: 0x24 }
  - { offsetInCU: 0x11B92, offset: 0x11B92, size: 0x8, addend: 0x0, symName: __ZNSt3__116reverse_iteratorIPNS_4pairIxNS_6vectorIiNS_9allocatorIiEEEEEEEC1B7v160006ES7_, symObjAddr: 0x2C2C, symBinAddr: 0x100005E48, symSize: 0x34 }
  - { offsetInCU: 0x11BC9, offset: 0x11BC9, size: 0x8, addend: 0x0, symName: __ZNKSt3__116reverse_iteratorIPNS_4pairIxNS_6vectorIiNS_9allocatorIiEEEEEEE4baseB7v160006Ev, symObjAddr: 0x2C60, symBinAddr: 0x100005E7C, symSize: 0x18 }
  - { offsetInCU: 0x11BEE, offset: 0x11BEE, size: 0x8, addend: 0x0, symName: __ZNKSt3__16vectorINS_4pairIxNS0_IiNS_9allocatorIiEEEEEENS2_IS5_EEE14__annotate_newB7v160006Em, symObjAddr: 0x2CB4, symBinAddr: 0x100005ED0, symSize: 0xAC }
  - { offsetInCU: 0x11C22, offset: 0x11C22, size: 0x8, addend: 0x0, symName: __ZNSt3__129_AllocatorDestroyRangeReverseINS_9allocatorINS_4pairIxNS_6vectorIiNS1_IiEEEEEEEENS_16reverse_iteratorIPS6_EEEC1B7v160006ERS7_RSA_SD_, symObjAddr: 0x2DBC, symBinAddr: 0x100005FD8, symSize: 0x44 }
  - { offsetInCU: 0x11C78, offset: 0x11C78, size: 0x8, addend: 0x0, symName: __ZNSt3__116allocator_traitsINS_9allocatorINS_4pairIxNS_6vectorIiNS1_IiEEEEEEEEE9constructB7v160006IS6_JS6_EvEEvRS7_PT_DpOT0_, symObjAddr: 0x2E48, symBinAddr: 0x100006064, symSize: 0x34 }
  - { offsetInCU: 0x11CCF, offset: 0x11CCF, size: 0x8, addend: 0x0, symName: __ZNKSt3__116reverse_iteratorIPNS_4pairIxNS_6vectorIiNS_9allocatorIiEEEEEEEdeB7v160006Ev, symObjAddr: 0x2EA0, symBinAddr: 0x1000060BC, symSize: 0x28 }
  - { offsetInCU: 0x11D02, offset: 0x11D02, size: 0x8, addend: 0x0, symName: __ZNSt3__116reverse_iteratorIPNS_4pairIxNS_6vectorIiNS_9allocatorIiEEEEEEEppB7v160006Ev, symObjAddr: 0x2EC8, symBinAddr: 0x1000060E4, symSize: 0x20 }
  - { offsetInCU: 0x11D27, offset: 0x11D27, size: 0x8, addend: 0x0, symName: __ZNSt3__128__exception_guard_exceptionsINS_29_AllocatorDestroyRangeReverseINS_9allocatorINS_4pairIxNS_6vectorIiNS2_IiEEEEEEEENS_16reverse_iteratorIPS7_EEEEE10__completeB7v160006Ev, symObjAddr: 0x2EE8, symBinAddr: 0x100006104, symSize: 0x1C }
  - { offsetInCU: 0x11D4C, offset: 0x11D4C, size: 0x8, addend: 0x0, symName: __ZNSt3__128__exception_guard_exceptionsINS_29_AllocatorDestroyRangeReverseINS_9allocatorINS_4pairIxNS_6vectorIiNS2_IiEEEEEEEENS_16reverse_iteratorIPS7_EEEEED1B7v160006Ev, symObjAddr: 0x2F04, symBinAddr: 0x100006120, symSize: 0x2C }
  - { offsetInCU: 0x11D75, offset: 0x11D75, size: 0x8, addend: 0x0, symName: __ZNSt3__128__exception_guard_exceptionsINS_29_AllocatorDestroyRangeReverseINS_9allocatorINS_4pairIxNS_6vectorIiNS2_IiEEEEEEEENS_16reverse_iteratorIPS7_EEEEEC1B7v160006ESC_, symObjAddr: 0x2F30, symBinAddr: 0x10000614C, symSize: 0x34 }
  - { offsetInCU: 0x11DAD, offset: 0x11DAD, size: 0x8, addend: 0x0, symName: __ZNSt3__128__exception_guard_exceptionsINS_29_AllocatorDestroyRangeReverseINS_9allocatorINS_4pairIxNS_6vectorIiNS2_IiEEEEEEEENS_16reverse_iteratorIPS7_EEEEEC2B7v160006ESC_, symObjAddr: 0x2F64, symBinAddr: 0x100006180, symSize: 0x30 }
  - { offsetInCU: 0x11DE5, offset: 0x11DE5, size: 0x8, addend: 0x0, symName: __ZNSt3__129_AllocatorDestroyRangeReverseINS_9allocatorINS_4pairIxNS_6vectorIiNS1_IiEEEEEEEENS_16reverse_iteratorIPS6_EEEC2B7v160006ERS7_RSA_SD_, symObjAddr: 0x2F94, symBinAddr: 0x1000061B0, symSize: 0x38 }
  - { offsetInCU: 0x11E3B, offset: 0x11E3B, size: 0x8, addend: 0x0, symName: __ZNSt3__19allocatorINS_4pairIxNS_6vectorIiNS0_IiEEEEEEE9constructB7v160006IS5_JS5_EEEvPT_DpOT0_, symObjAddr: 0x2FCC, symBinAddr: 0x1000061E8, symSize: 0x30 }
  - { offsetInCU: 0x11E90, offset: 0x11E90, size: 0x8, addend: 0x0, symName: __ZNSt3__14pairIxNS_6vectorIiNS_9allocatorIiEEEEEC1EOS5_, symObjAddr: 0x2FFC, symBinAddr: 0x100006218, symSize: 0x34 }
  - { offsetInCU: 0x11EC4, offset: 0x11EC4, size: 0x8, addend: 0x0, symName: __ZNSt3__14pairIxNS_6vectorIiNS_9allocatorIiEEEEEC2EOS5_, symObjAddr: 0x3030, symBinAddr: 0x10000624C, symSize: 0x48 }
  - { offsetInCU: 0x11EF8, offset: 0x11EF8, size: 0x8, addend: 0x0, symName: __ZNSt3__16vectorIiNS_9allocatorIiEEEC1B7v160006EOS3_, symObjAddr: 0x3078, symBinAddr: 0x100006294, symSize: 0x34 }
  - { offsetInCU: 0x11F32, offset: 0x11F32, size: 0x8, addend: 0x0, symName: __ZNSt3__16vectorIiNS_9allocatorIiEEEC2B7v160006EOS3_, symObjAddr: 0x30AC, symBinAddr: 0x1000062C8, symSize: 0xE0 }
  - { offsetInCU: 0x11F6C, offset: 0x11F6C, size: 0x8, addend: 0x0, symName: __ZNSt3__16vectorIiNS_9allocatorIiEEE7__allocB7v160006Ev, symObjAddr: 0x318C, symBinAddr: 0x1000063A8, symSize: 0x28 }
  - { offsetInCU: 0x11F96, offset: 0x11F96, size: 0x8, addend: 0x0, symName: __ZNSt3__117__compressed_pairIPiNS_9allocatorIiEEEC1B7v160006IDnS3_EEOT_OT0_, symObjAddr: 0x31B4, symBinAddr: 0x1000063D0, symSize: 0x3C }
  - { offsetInCU: 0x11FED, offset: 0x11FED, size: 0x8, addend: 0x0, symName: __ZNSt3__16vectorIiNS_9allocatorIiEEE9__end_capB7v160006Ev, symObjAddr: 0x3214, symBinAddr: 0x100006430, symSize: 0x28 }
  - { offsetInCU: 0x12012, offset: 0x12012, size: 0x8, addend: 0x0, symName: __ZNSt3__117__compressed_pairIPiNS_9allocatorIiEEE6secondB7v160006Ev, symObjAddr: 0x323C, symBinAddr: 0x100006458, symSize: 0x24 }
  - { offsetInCU: 0x12037, offset: 0x12037, size: 0x8, addend: 0x0, symName: __ZNSt3__122__compressed_pair_elemINS_9allocatorIiEELi1ELb1EE5__getB7v160006Ev, symObjAddr: 0x3260, symBinAddr: 0x10000647C, symSize: 0x14 }
  - { offsetInCU: 0x1205C, offset: 0x1205C, size: 0x8, addend: 0x0, symName: __ZNSt3__117__compressed_pairIPiNS_9allocatorIiEEEC2B7v160006IDnS3_EEOT_OT0_, symObjAddr: 0x3274, symBinAddr: 0x100006490, symSize: 0x44 }
  - { offsetInCU: 0x120B3, offset: 0x120B3, size: 0x8, addend: 0x0, symName: __ZNSt3__122__compressed_pair_elemIPiLi0ELb0EEC2B7v160006IDnvEEOT_, symObjAddr: 0x32B8, symBinAddr: 0x1000064D4, symSize: 0x1C }
  - { offsetInCU: 0x120F4, offset: 0x120F4, size: 0x8, addend: 0x0, symName: __ZNSt3__122__compressed_pair_elemINS_9allocatorIiEELi1ELb1EEC2B7v160006IS2_vEEOT_, symObjAddr: 0x32D4, symBinAddr: 0x1000064F0, symSize: 0x18 }
  - { offsetInCU: 0x12135, offset: 0x12135, size: 0x8, addend: 0x0, symName: __ZNSt3__117__compressed_pairIPiNS_9allocatorIiEEE5firstB7v160006Ev, symObjAddr: 0x32EC, symBinAddr: 0x100006508, symSize: 0x24 }
  - { offsetInCU: 0x1215A, offset: 0x1215A, size: 0x8, addend: 0x0, symName: __ZNSt3__122__compressed_pair_elemIPiLi0ELb0EE5__getB7v160006Ev, symObjAddr: 0x3310, symBinAddr: 0x10000652C, symSize: 0x14 }
  - { offsetInCU: 0x12184, offset: 0x12184, size: 0x8, addend: 0x0, symName: __ZNSt3__119__to_address_helperINS_16reverse_iteratorIPNS_4pairIxNS_6vectorIiNS_9allocatorIiEEEEEEEEvE6__callB7v160006ERKS9_, symObjAddr: 0x3324, symBinAddr: 0x100006540, symSize: 0x38 }
  - { offsetInCU: 0x121A7, offset: 0x121A7, size: 0x8, addend: 0x0, symName: __ZNKSt3__116reverse_iteratorIPNS_4pairIxNS_6vectorIiNS_9allocatorIiEEEEEEEptB7v160006Ev, symObjAddr: 0x335C, symBinAddr: 0x100006578, symSize: 0x24 }
  - { offsetInCU: 0x121CC, offset: 0x121CC, size: 0x8, addend: 0x0, symName: __ZNSt3__128__exception_guard_exceptionsINS_29_AllocatorDestroyRangeReverseINS_9allocatorINS_4pairIxNS_6vectorIiNS2_IiEEEEEEEENS_16reverse_iteratorIPS7_EEEEED2B7v160006Ev, symObjAddr: 0x3380, symBinAddr: 0x10000659C, symSize: 0x50 }
  - { offsetInCU: 0x121F5, offset: 0x121F5, size: 0x8, addend: 0x0, symName: __ZNKSt3__129_AllocatorDestroyRangeReverseINS_9allocatorINS_4pairIxNS_6vectorIiNS1_IiEEEEEEEENS_16reverse_iteratorIPS6_EEEclB7v160006Ev, symObjAddr: 0x33D0, symBinAddr: 0x1000065EC, symSize: 0xB4 }
  - { offsetInCU: 0x1221B, offset: 0x1221B, size: 0x8, addend: 0x0, symName: __ZNSt3__116reverse_iteratorINS0_IPNS_4pairIxNS_6vectorIiNS_9allocatorIiEEEEEEEEEC1B7v160006ES8_, symObjAddr: 0x34F4, symBinAddr: 0x100006710, symSize: 0x3C }
  - { offsetInCU: 0x12252, offset: 0x12252, size: 0x8, addend: 0x0, symName: __ZNSt3__116reverse_iteratorINS0_IPNS_4pairIxNS_6vectorIiNS_9allocatorIiEEEEEEEEEppB7v160006Ev, symObjAddr: 0x35B4, symBinAddr: 0x1000067D0, symSize: 0x30 }
  - { offsetInCU: 0x12277, offset: 0x12277, size: 0x8, addend: 0x0, symName: __ZNKSt3__116reverse_iteratorINS0_IPNS_4pairIxNS_6vectorIiNS_9allocatorIiEEEEEEEEE4baseB7v160006Ev, symObjAddr: 0x35E4, symBinAddr: 0x100006800, symSize: 0x24 }
  - { offsetInCU: 0x122A1, offset: 0x122A1, size: 0x8, addend: 0x0, symName: __ZNSt3__119__to_address_helperINS_16reverse_iteratorINS1_IPNS_4pairIxNS_6vectorIiNS_9allocatorIiEEEEEEEEEEvE6__callB7v160006ERKSA_, symObjAddr: 0x3608, symBinAddr: 0x100006824, symSize: 0x38 }
  - { offsetInCU: 0x122C4, offset: 0x122C4, size: 0x8, addend: 0x0, symName: __ZNKSt3__116reverse_iteratorINS0_IPNS_4pairIxNS_6vectorIiNS_9allocatorIiEEEEEEEEEptB7v160006Ev, symObjAddr: 0x3640, symBinAddr: 0x10000685C, symSize: 0x24 }
  - { offsetInCU: 0x122E9, offset: 0x122E9, size: 0x8, addend: 0x0, symName: __ZNKSt3__116reverse_iteratorINS0_IPNS_4pairIxNS_6vectorIiNS_9allocatorIiEEEEEEEEEdeB7v160006Ev, symObjAddr: 0x3664, symBinAddr: 0x100006880, symSize: 0x34 }
  - { offsetInCU: 0x1231C, offset: 0x1231C, size: 0x8, addend: 0x0, symName: __ZNSt3__116reverse_iteratorIPNS_4pairIxNS_6vectorIiNS_9allocatorIiEEEEEEEmmB7v160006Ev, symObjAddr: 0x3698, symBinAddr: 0x1000068B4, symSize: 0x20 }
  - { offsetInCU: 0x12341, offset: 0x12341, size: 0x8, addend: 0x0, symName: __ZNSt3__116reverse_iteratorINS0_IPNS_4pairIxNS_6vectorIiNS_9allocatorIiEEEEEEEEEC2B7v160006ES8_, symObjAddr: 0x36B8, symBinAddr: 0x1000068D4, symSize: 0x2C }
  - { offsetInCU: 0x12378, offset: 0x12378, size: 0x8, addend: 0x0, symName: __ZNSt3__116reverse_iteratorIPNS_4pairIxNS_6vectorIiNS_9allocatorIiEEEEEEEC2B7v160006ES7_, symObjAddr: 0x36E4, symBinAddr: 0x100006900, symSize: 0x28 }
  - { offsetInCU: 0x123AF, offset: 0x123AF, size: 0x8, addend: 0x0, symName: __ZNSt3__114__split_bufferINS_4pairIxNS_6vectorIiNS_9allocatorIiEEEEEERNS3_IS6_EEED2Ev, symObjAddr: 0x370C, symBinAddr: 0x100006928, symSize: 0x8C }
  - { offsetInCU: 0x123DA, offset: 0x123DA, size: 0x8, addend: 0x0, symName: __ZNSt3__114__split_bufferINS_4pairIxNS_6vectorIiNS_9allocatorIiEEEEEERNS3_IS6_EEE5clearB7v160006Ev, symObjAddr: 0x3798, symBinAddr: 0x1000069B4, symSize: 0x28 }
  - { offsetInCU: 0x123FF, offset: 0x123FF, size: 0x8, addend: 0x0, symName: __ZNKSt3__114__split_bufferINS_4pairIxNS_6vectorIiNS_9allocatorIiEEEEEERNS3_IS6_EEE8capacityB7v160006Ev, symObjAddr: 0x37C0, symBinAddr: 0x1000069DC, symSize: 0x40 }
  - { offsetInCU: 0x12424, offset: 0x12424, size: 0x8, addend: 0x0, symName: __ZNSt3__114__split_bufferINS_4pairIxNS_6vectorIiNS_9allocatorIiEEEEEERNS3_IS6_EEE17__destruct_at_endB7v160006EPS6_, symObjAddr: 0x3800, symBinAddr: 0x100006A1C, symSize: 0x2C }
  - { offsetInCU: 0x12456, offset: 0x12456, size: 0x8, addend: 0x0, symName: __ZNSt3__114__split_bufferINS_4pairIxNS_6vectorIiNS_9allocatorIiEEEEEERNS3_IS6_EEE17__destruct_at_endB7v160006EPS6_NS_17integral_constantIbLb0EEE, symObjAddr: 0x382C, symBinAddr: 0x100006A48, symSize: 0x80 }
  - { offsetInCU: 0x12496, offset: 0x12496, size: 0x8, addend: 0x0, symName: __ZNKSt3__114__split_bufferINS_4pairIxNS_6vectorIiNS_9allocatorIiEEEEEERNS3_IS6_EEE9__end_capB7v160006Ev, symObjAddr: 0x38AC, symBinAddr: 0x100006AC8, symSize: 0x28 }
  - { offsetInCU: 0x124BB, offset: 0x124BB, size: 0x8, addend: 0x0, symName: __ZNKSt3__117__compressed_pairIPNS_4pairIxNS_6vectorIiNS_9allocatorIiEEEEEERNS3_IS6_EEE5firstB7v160006Ev, symObjAddr: 0x38D4, symBinAddr: 0x100006AF0, symSize: 0x24 }
  - { offsetInCU: 0x124E0, offset: 0x124E0, size: 0x8, addend: 0x0, symName: __ZNKSt3__111__wrap_iterIPNS_4pairIxNS_6vectorIiNS_9allocatorIiEEEEEEE4baseB7v160006Ev, symObjAddr: 0x3B38, symBinAddr: 0x100006D54, symSize: 0x18 }
  - { offsetInCU: 0x12505, offset: 0x12505, size: 0x8, addend: 0x0, symName: __ZNKSt3__111__wrap_iterIPNS_4pairIxNS_6vectorIiNS_9allocatorIiEEEEEEEplB7v160006El, symObjAddr: 0x3B50, symBinAddr: 0x100006D6C, symSize: 0x3C }
  - { offsetInCU: 0x12546, offset: 0x12546, size: 0x8, addend: 0x0, symName: __ZNKSt3__14lessINS_4pairIxNS_6vectorIiNS_9allocatorIiEEEEEEEclB7v160006ERKS6_S9_, symObjAddr: 0x3B8C, symBinAddr: 0x100006DA8, symSize: 0x34 }
  - { offsetInCU: 0x12589, offset: 0x12589, size: 0x8, addend: 0x0, symName: __ZNKSt3__111__wrap_iterIPNS_4pairIxNS_6vectorIiNS_9allocatorIiEEEEEEEdeB7v160006Ev, symObjAddr: 0x3BC0, symBinAddr: 0x100006DDC, symSize: 0x18 }
  - { offsetInCU: 0x125AE, offset: 0x125AE, size: 0x8, addend: 0x0, symName: __ZNSt3__111__wrap_iterIPNS_4pairIxNS_6vectorIiNS_9allocatorIiEEEEEEEmmB7v160006Ev, symObjAddr: 0x3BD8, symBinAddr: 0x100006DF4, symSize: 0x20 }
  - { offsetInCU: 0x125D3, offset: 0x125D3, size: 0x8, addend: 0x0, symName: __ZNSt3__18_IterOpsINS_17_ClassicAlgPolicyEE11__iter_moveB7v160006IRNS_11__wrap_iterIPNS_4pairIxNS_6vectorIiNS_9allocatorIiEEEEEEEEEENS_9enable_ifIXsr12is_referenceIDTdeclsr3stdE7declvalIRT_EEEEE5valueEDTclsr3stdE4movedeclsr3stdE7declvalISG_EEEEE4typeEOSF_, symObjAddr: 0x3BF8, symBinAddr: 0x100006E14, symSize: 0x28 }
  - { offsetInCU: 0x125FF, offset: 0x125FF, size: 0x8, addend: 0x0, symName: __ZNSt3__14pairIxNS_6vectorIiNS_9allocatorIiEEEEEaSB7v160006EOS5_, symObjAddr: 0x3C20, symBinAddr: 0x100006E3C, symSize: 0x48 }
  - { offsetInCU: 0x12633, offset: 0x12633, size: 0x8, addend: 0x0, symName: __ZNSt3__111__wrap_iterIPNS_4pairIxNS_6vectorIiNS_9allocatorIiEEEEEEEpLB7v160006El, symObjAddr: 0x3C68, symBinAddr: 0x100006E84, symSize: 0x28 }
  - { offsetInCU: 0x12665, offset: 0x12665, size: 0x8, addend: 0x0, symName: __ZNKSt3__16vectorIiNS_9allocatorIiEEE5beginB7v160006Ev, symObjAddr: 0x3DF8, symBinAddr: 0x100007014, symSize: 0x30 }
  - { offsetInCU: 0x1268B, offset: 0x1268B, size: 0x8, addend: 0x0, symName: __ZNKSt3__16vectorIiNS_9allocatorIiEEE3endB7v160006Ev, symObjAddr: 0x3E28, symBinAddr: 0x100007044, symSize: 0x30 }
  - { offsetInCU: 0x126BC, offset: 0x126BC, size: 0x8, addend: 0x0, symName: __ZNKSt3__16__lessIiiEclB7v160006ERKiS3_, symObjAddr: 0x4054, symBinAddr: 0x100007270, symSize: 0x34 }
  - { offsetInCU: 0x126FD, offset: 0x126FD, size: 0x8, addend: 0x0, symName: __ZNKSt3__111__wrap_iterIPKiEdeB7v160006Ev, symObjAddr: 0x4088, symBinAddr: 0x1000072A4, symSize: 0x18 }
  - { offsetInCU: 0x12722, offset: 0x12722, size: 0x8, addend: 0x0, symName: __ZNSt3__111__wrap_iterIPKiEppB7v160006Ev, symObjAddr: 0x40A0, symBinAddr: 0x1000072BC, symSize: 0x20 }
  - { offsetInCU: 0x12747, offset: 0x12747, size: 0x8, addend: 0x0, symName: __ZNKSt3__111__wrap_iterIPKiE4baseB7v160006Ev, symObjAddr: 0x40C0, symBinAddr: 0x1000072DC, symSize: 0x18 }
  - { offsetInCU: 0x1276C, offset: 0x1276C, size: 0x8, addend: 0x0, symName: __ZNKSt3__16vectorIiNS_9allocatorIiEEE11__make_iterB7v160006EPKi, symObjAddr: 0x40D8, symBinAddr: 0x1000072F4, symSize: 0x34 }
  - { offsetInCU: 0x127A0, offset: 0x127A0, size: 0x8, addend: 0x0, symName: __ZNSt3__111__wrap_iterIPKiEC1B7v160006EPKvS2_, symObjAddr: 0x410C, symBinAddr: 0x100007328, symSize: 0x3C }
  - { offsetInCU: 0x127E5, offset: 0x127E5, size: 0x8, addend: 0x0, symName: __ZNSt3__111__wrap_iterIPKiEC2B7v160006EPKvS2_, symObjAddr: 0x4148, symBinAddr: 0x100007364, symSize: 0x24 }
  - { offsetInCU: 0x1282A, offset: 0x1282A, size: 0x8, addend: 0x0, symName: __ZNSt3__18_IterOpsINS_17_ClassicAlgPolicyEE25__validate_iter_referenceB7v160006IRNS_11__wrap_iterIPNS_4pairIxNS_6vectorIiNS_9allocatorIiEEEEEEEEEEvv, symObjAddr: 0x416C, symBinAddr: 0x100007388, symSize: 0x4 }
  - { offsetInCU: 0x12847, offset: 0x12847, size: 0x8, addend: 0x0, symName: __ZNSt3__16vectorIiNS_9allocatorIiEEEaSB7v160006EOS3_, symObjAddr: 0x4170, symBinAddr: 0x10000738C, symSize: 0x34 }
  - { offsetInCU: 0x1287C, offset: 0x1287C, size: 0x8, addend: 0x0, symName: __ZNSt3__16vectorIiNS_9allocatorIiEEE13__move_assignERS3_NS_17integral_constantIbLb1EEE, symObjAddr: 0x41A4, symBinAddr: 0x1000073C0, symSize: 0xA4 }
  - { offsetInCU: 0x128BC, offset: 0x128BC, size: 0x8, addend: 0x0, symName: __ZNSt3__16vectorIiNS_9allocatorIiEEE13__vdeallocateEv, symObjAddr: 0x4248, symBinAddr: 0x100007464, symSize: 0x8C }
  - { offsetInCU: 0x128E3, offset: 0x128E3, size: 0x8, addend: 0x0, symName: __ZNSt3__16vectorIiNS_9allocatorIiEEE19__move_assign_allocB7v160006ERS3_, symObjAddr: 0x42D4, symBinAddr: 0x1000074F0, symSize: 0x2C }
  - { offsetInCU: 0x12917, offset: 0x12917, size: 0x8, addend: 0x0, symName: __ZNSt3__16vectorIiNS_9allocatorIiEEE5clearB7v160006Ev, symObjAddr: 0x4300, symBinAddr: 0x10000751C, symSize: 0x54 }
  - { offsetInCU: 0x1294B, offset: 0x1294B, size: 0x8, addend: 0x0, symName: __ZNSt3__116allocator_traitsINS_9allocatorIiEEE10deallocateB7v160006ERS2_Pim, symObjAddr: 0x4354, symBinAddr: 0x100007570, symSize: 0x34 }
  - { offsetInCU: 0x1298D, offset: 0x1298D, size: 0x8, addend: 0x0, symName: __ZNKSt3__16vectorIiNS_9allocatorIiEEE8capacityB7v160006Ev, symObjAddr: 0x4388, symBinAddr: 0x1000075A4, symSize: 0x40 }
  - { offsetInCU: 0x129B2, offset: 0x129B2, size: 0x8, addend: 0x0, symName: __ZNKSt3__16vectorIiNS_9allocatorIiEEE4sizeB7v160006Ev, symObjAddr: 0x43C8, symBinAddr: 0x1000075E4, symSize: 0x28 }
  - { offsetInCU: 0x129D7, offset: 0x129D7, size: 0x8, addend: 0x0, symName: __ZNSt3__16vectorIiNS_9allocatorIiEEE7__clearB7v160006Ev, symObjAddr: 0x43F0, symBinAddr: 0x10000760C, symSize: 0x28 }
  - { offsetInCU: 0x129FC, offset: 0x129FC, size: 0x8, addend: 0x0, symName: __ZNKSt3__16vectorIiNS_9allocatorIiEEE17__annotate_shrinkB7v160006Em, symObjAddr: 0x4418, symBinAddr: 0x100007634, symSize: 0xB4 }
  - { offsetInCU: 0x12A30, offset: 0x12A30, size: 0x8, addend: 0x0, symName: __ZNSt3__16vectorIiNS_9allocatorIiEEE22__base_destruct_at_endB7v160006EPi, symObjAddr: 0x44DC, symBinAddr: 0x1000076F8, symSize: 0x8C }
  - { offsetInCU: 0x12A73, offset: 0x12A73, size: 0x8, addend: 0x0, symName: __ZNSt3__116allocator_traitsINS_9allocatorIiEEE7destroyB7v160006IivEEvRS2_PT_, symObjAddr: 0x4568, symBinAddr: 0x100007784, symSize: 0x2C }
  - { offsetInCU: 0x12AB0, offset: 0x12AB0, size: 0x8, addend: 0x0, symName: __ZNSt3__19allocatorIiE7destroyB7v160006EPi, symObjAddr: 0x45A8, symBinAddr: 0x1000077C4, symSize: 0x14 }
  - { offsetInCU: 0x12AE3, offset: 0x12AE3, size: 0x8, addend: 0x0, symName: __ZNKSt3__16vectorIiNS_9allocatorIiEEE31__annotate_contiguous_containerB7v160006EPKvS5_S5_S5_, symObjAddr: 0x45BC, symBinAddr: 0x1000077D8, symSize: 0x20 }
  - { offsetInCU: 0x12B34, offset: 0x12B34, size: 0x8, addend: 0x0, symName: __ZNKSt3__16vectorIiNS_9allocatorIiEEE4dataB7v160006Ev, symObjAddr: 0x45DC, symBinAddr: 0x1000077F8, symSize: 0x28 }
  - { offsetInCU: 0x12B59, offset: 0x12B59, size: 0x8, addend: 0x0, symName: __ZNSt3__19allocatorIiE10deallocateB7v160006EPim, symObjAddr: 0x4604, symBinAddr: 0x100007820, symSize: 0x40 }
  - { offsetInCU: 0x12B9A, offset: 0x12B9A, size: 0x8, addend: 0x0, symName: __ZNKSt3__16vectorIiNS_9allocatorIiEEE9__end_capB7v160006Ev, symObjAddr: 0x4644, symBinAddr: 0x100007860, symSize: 0x28 }
  - { offsetInCU: 0x12BBF, offset: 0x12BBF, size: 0x8, addend: 0x0, symName: __ZNKSt3__117__compressed_pairIPiNS_9allocatorIiEEE5firstB7v160006Ev, symObjAddr: 0x466C, symBinAddr: 0x100007888, symSize: 0x24 }
  - { offsetInCU: 0x12BE4, offset: 0x12BE4, size: 0x8, addend: 0x0, symName: __ZNKSt3__122__compressed_pair_elemIPiLi0ELb0EE5__getB7v160006Ev, symObjAddr: 0x4690, symBinAddr: 0x1000078AC, symSize: 0x14 }
  - { offsetInCU: 0x12C09, offset: 0x12C09, size: 0x8, addend: 0x0, symName: __ZNSt3__16vectorIiNS_9allocatorIiEEE19__move_assign_allocB7v160006ERS3_NS_17integral_constantIbLb1EEE, symObjAddr: 0x46A4, symBinAddr: 0x1000078C0, symSize: 0x38 }
  - { offsetInCU: 0x12C48, offset: 0x12C48, size: 0x8, addend: 0x0, symName: __ZNSt3__16vectorINS_4pairIxNS0_IiNS_9allocatorIiEEEEEENS2_IS5_EEE11__make_iterB7v160006EPS5_, symObjAddr: 0x46DC, symBinAddr: 0x1000078F8, symSize: 0x34 }
  - { offsetInCU: 0x12C7C, offset: 0x12C7C, size: 0x8, addend: 0x0, symName: __ZNSt3__111__wrap_iterIPNS_4pairIxNS_6vectorIiNS_9allocatorIiEEEEEEEC1B7v160006EPKvS7_, symObjAddr: 0x4710, symBinAddr: 0x10000792C, symSize: 0x3C }
  - { offsetInCU: 0x12CC1, offset: 0x12CC1, size: 0x8, addend: 0x0, symName: __ZNSt3__111__wrap_iterIPNS_4pairIxNS_6vectorIiNS_9allocatorIiEEEEEEEC2B7v160006EPKvS7_, symObjAddr: 0x474C, symBinAddr: 0x100007968, symSize: 0x24 }
  - { offsetInCU: 0x12D06, offset: 0x12D06, size: 0x8, addend: 0x0, symName: __ZNSt3__16vectorIiNS_9allocatorIiEEE11__make_iterB7v160006EPi, symObjAddr: 0x4770, symBinAddr: 0x10000798C, symSize: 0x34 }
  - { offsetInCU: 0x12D3A, offset: 0x12D3A, size: 0x8, addend: 0x0, symName: __ZNSt3__111__wrap_iterIPiEC1B7v160006EPKvS1_, symObjAddr: 0x47A4, symBinAddr: 0x1000079C0, symSize: 0x3C }
  - { offsetInCU: 0x12D7F, offset: 0x12D7F, size: 0x8, addend: 0x0, symName: __ZNSt3__111__wrap_iterIPiEC2B7v160006EPKvS1_, symObjAddr: 0x47E0, symBinAddr: 0x1000079FC, symSize: 0x24 }
  - { offsetInCU: 0x12DC4, offset: 0x12DC4, size: 0x8, addend: 0x0, symName: __ZNKSt3__16vectorINS_4pairIxNS0_IiNS_9allocatorIiEEEEEENS2_IS5_EEE5emptyB7v160006Ev, symObjAddr: 0x4804, symBinAddr: 0x100007A20, symSize: 0x28 }
  - { offsetInCU: 0x12DE9, offset: 0x12DE9, size: 0x8, addend: 0x0, symName: __ZNKSt3__16vectorINS_4pairIxNS0_IiNS_9allocatorIiEEEEEENS2_IS5_EEE5frontB7v160006Ev, symObjAddr: 0x482C, symBinAddr: 0x100007A48, symSize: 0x18 }
  - { offsetInCU: 0x12E0E, offset: 0x12E0E, size: 0x8, addend: 0x0, symName: __ZNSt3__16vectorIiNS_9allocatorIiEEEC2ERKS3_, symObjAddr: 0x4844, symBinAddr: 0x100007A60, symSize: 0x110 }
  - { offsetInCU: 0x12E76, offset: 0x12E76, size: 0x8, addend: 0x0, symName: __ZNSt3__116allocator_traitsINS_9allocatorIiEEE37select_on_container_copy_constructionB7v160006IS2_vvEES2_RKS2_, symObjAddr: 0x4954, symBinAddr: 0x100007B70, symSize: 0x10 }
  - { offsetInCU: 0x12EA5, offset: 0x12EA5, size: 0x8, addend: 0x0, symName: __ZNKSt3__16vectorIiNS_9allocatorIiEEE7__allocB7v160006Ev, symObjAddr: 0x4964, symBinAddr: 0x100007B80, symSize: 0x28 }
  - { offsetInCU: 0x12ECA, offset: 0x12ECA, size: 0x8, addend: 0x0, symName: __ZNSt3__16vectorIiNS_9allocatorIiEEE16__destroy_vectorC1ERS3_, symObjAddr: 0x49CC, symBinAddr: 0x100007BE8, symSize: 0x34 }
  - { offsetInCU: 0x12F02, offset: 0x12F02, size: 0x8, addend: 0x0, symName: __ZNSt3__16vectorIiNS_9allocatorIiEEE11__vallocateB7v160006Em, symObjAddr: 0x4A00, symBinAddr: 0x100007C1C, symSize: 0xAC }
  - { offsetInCU: 0x12F44, offset: 0x12F44, size: 0x8, addend: 0x0, symName: __ZNSt3__16vectorIiNS_9allocatorIiEEE18__construct_at_endIPiLi0EEEvT_S6_m, symObjAddr: 0x4AAC, symBinAddr: 0x100007CC8, symSize: 0x8C }
  - { offsetInCU: 0x12FB6, offset: 0x12FB6, size: 0x8, addend: 0x0, symName: __ZNSt3__128__exception_guard_exceptionsINS_6vectorIiNS_9allocatorIiEEE16__destroy_vectorEE10__completeB7v160006Ev, symObjAddr: 0x4B38, symBinAddr: 0x100007D54, symSize: 0x1C }
  - { offsetInCU: 0x12FDB, offset: 0x12FDB, size: 0x8, addend: 0x0, symName: __ZNSt3__128__exception_guard_exceptionsINS_6vectorIiNS_9allocatorIiEEE16__destroy_vectorEED1B7v160006Ev, symObjAddr: 0x4B54, symBinAddr: 0x100007D70, symSize: 0x2C }
  - { offsetInCU: 0x13004, offset: 0x13004, size: 0x8, addend: 0x0, symName: __ZNKSt3__117__compressed_pairIPiNS_9allocatorIiEEE6secondB7v160006Ev, symObjAddr: 0x4B80, symBinAddr: 0x100007D9C, symSize: 0x24 }
  - { offsetInCU: 0x13029, offset: 0x13029, size: 0x8, addend: 0x0, symName: __ZNKSt3__122__compressed_pair_elemINS_9allocatorIiEELi1ELb1EE5__getB7v160006Ev, symObjAddr: 0x4BA4, symBinAddr: 0x100007DC0, symSize: 0x14 }
  - { offsetInCU: 0x1304E, offset: 0x1304E, size: 0x8, addend: 0x0, symName: __ZNSt3__128__exception_guard_exceptionsINS_6vectorIiNS_9allocatorIiEEE16__destroy_vectorEEC1B7v160006ES5_, symObjAddr: 0x4BB8, symBinAddr: 0x100007DD4, symSize: 0x34 }
  - { offsetInCU: 0x13085, offset: 0x13085, size: 0x8, addend: 0x0, symName: __ZNSt3__128__exception_guard_exceptionsINS_6vectorIiNS_9allocatorIiEEE16__destroy_vectorEEC2B7v160006ES5_, symObjAddr: 0x4BEC, symBinAddr: 0x100007E08, symSize: 0x24 }
  - { offsetInCU: 0x130BC, offset: 0x130BC, size: 0x8, addend: 0x0, symName: __ZNSt3__16vectorIiNS_9allocatorIiEEE16__destroy_vectorC2ERS3_, symObjAddr: 0x4C10, symBinAddr: 0x100007E2C, symSize: 0x20 }
  - { offsetInCU: 0x130F3, offset: 0x130F3, size: 0x8, addend: 0x0, symName: __ZNKSt3__16vectorIiNS_9allocatorIiEEE8max_sizeEv, symObjAddr: 0x4C30, symBinAddr: 0x100007E4C, symSize: 0x60 }
  - { offsetInCU: 0x1311A, offset: 0x1311A, size: 0x8, addend: 0x0, symName: __ZNKSt3__16vectorIiNS_9allocatorIiEEE20__throw_length_errorB7v160006Ev, symObjAddr: 0x4C90, symBinAddr: 0x100007EAC, symSize: 0x1C }
  - { offsetInCU: 0x1313F, offset: 0x1313F, size: 0x8, addend: 0x0, symName: __ZNKSt3__16vectorIiNS_9allocatorIiEEE14__annotate_newB7v160006Em, symObjAddr: 0x4CEC, symBinAddr: 0x100007F08, symSize: 0xAC }
  - { offsetInCU: 0x13173, offset: 0x13173, size: 0x8, addend: 0x0, symName: __ZNSt3__116allocator_traitsINS_9allocatorIiEEE8max_sizeB7v160006IS2_vEEmRKS2_, symObjAddr: 0x4D98, symBinAddr: 0x100007FB4, symSize: 0x24 }
  - { offsetInCU: 0x131A1, offset: 0x131A1, size: 0x8, addend: 0x0, symName: __ZNKSt3__19allocatorIiE8max_sizeB7v160006Ev, symObjAddr: 0x4DBC, symBinAddr: 0x100007FD8, symSize: 0x14 }
  - { offsetInCU: 0x131C6, offset: 0x131C6, size: 0x8, addend: 0x0, symName: __ZNSt3__19allocatorIiE8allocateB7v160006Em, symObjAddr: 0x4DD0, symBinAddr: 0x100007FEC, symSize: 0x58 }
  - { offsetInCU: 0x13212, offset: 0x13212, size: 0x8, addend: 0x0, symName: __ZNSt3__16vectorIiNS_9allocatorIiEEE21_ConstructTransactionC1B7v160006ERS3_m, symObjAddr: 0x4E28, symBinAddr: 0x100008044, symSize: 0x3C }
  - { offsetInCU: 0x13259, offset: 0x13259, size: 0x8, addend: 0x0, symName: __ZNSt3__16vectorIiNS_9allocatorIiEEE21_ConstructTransactionD1B7v160006Ev, symObjAddr: 0x4F58, symBinAddr: 0x100008174, symSize: 0x2C }
  - { offsetInCU: 0x13282, offset: 0x13282, size: 0x8, addend: 0x0, symName: __ZNSt3__16vectorIiNS_9allocatorIiEEE21_ConstructTransactionC2B7v160006ERS3_m, symObjAddr: 0x4F84, symBinAddr: 0x1000081A0, symSize: 0x44 }
  - { offsetInCU: 0x132C9, offset: 0x132C9, size: 0x8, addend: 0x0, symName: __ZNSt3__129_AllocatorDestroyRangeReverseINS_9allocatorIiEEPiEC1B7v160006ERS2_RS3_S6_, symObjAddr: 0x5014, symBinAddr: 0x100008230, symSize: 0x44 }
  - { offsetInCU: 0x1331F, offset: 0x1331F, size: 0x8, addend: 0x0, symName: __ZNSt3__116allocator_traitsINS_9allocatorIiEEE9constructB7v160006IiJRiEvEEvRS2_PT_DpOT0_, symObjAddr: 0x5058, symBinAddr: 0x100008274, symSize: 0x34 }
  - { offsetInCU: 0x13376, offset: 0x13376, size: 0x8, addend: 0x0, symName: __ZNSt3__128__exception_guard_exceptionsINS_29_AllocatorDestroyRangeReverseINS_9allocatorIiEEPiEEE10__completeB7v160006Ev, symObjAddr: 0x508C, symBinAddr: 0x1000082A8, symSize: 0x1C }
  - { offsetInCU: 0x1339B, offset: 0x1339B, size: 0x8, addend: 0x0, symName: __ZNSt3__128__exception_guard_exceptionsINS_29_AllocatorDestroyRangeReverseINS_9allocatorIiEEPiEEED1B7v160006Ev, symObjAddr: 0x50A8, symBinAddr: 0x1000082C4, symSize: 0x2C }
  - { offsetInCU: 0x133C4, offset: 0x133C4, size: 0x8, addend: 0x0, symName: __ZNSt3__128__exception_guard_exceptionsINS_29_AllocatorDestroyRangeReverseINS_9allocatorIiEEPiEEEC1B7v160006ES5_, symObjAddr: 0x50D4, symBinAddr: 0x1000082F0, symSize: 0x34 }
  - { offsetInCU: 0x133FC, offset: 0x133FC, size: 0x8, addend: 0x0, symName: __ZNSt3__128__exception_guard_exceptionsINS_29_AllocatorDestroyRangeReverseINS_9allocatorIiEEPiEEEC2B7v160006ES5_, symObjAddr: 0x5108, symBinAddr: 0x100008324, symSize: 0x30 }
  - { offsetInCU: 0x13434, offset: 0x13434, size: 0x8, addend: 0x0, symName: __ZNSt3__129_AllocatorDestroyRangeReverseINS_9allocatorIiEEPiEC2B7v160006ERS2_RS3_S6_, symObjAddr: 0x5138, symBinAddr: 0x100008354, symSize: 0x38 }
  - { offsetInCU: 0x1348A, offset: 0x1348A, size: 0x8, addend: 0x0, symName: __ZNSt3__19allocatorIiE9constructB7v160006IiJRiEEEvPT_DpOT0_, symObjAddr: 0x5170, symBinAddr: 0x10000838C, symSize: 0x28 }
  - { offsetInCU: 0x134DF, offset: 0x134DF, size: 0x8, addend: 0x0, symName: __ZNSt3__128__exception_guard_exceptionsINS_29_AllocatorDestroyRangeReverseINS_9allocatorIiEEPiEEED2B7v160006Ev, symObjAddr: 0x5198, symBinAddr: 0x1000083B4, symSize: 0x50 }
  - { offsetInCU: 0x13508, offset: 0x13508, size: 0x8, addend: 0x0, symName: __ZNKSt3__129_AllocatorDestroyRangeReverseINS_9allocatorIiEEPiEclB7v160006Ev, symObjAddr: 0x51E8, symBinAddr: 0x100008404, symSize: 0x68 }
  - { offsetInCU: 0x1352D, offset: 0x1352D, size: 0x8, addend: 0x0, symName: __ZNSt3__116reverse_iteratorIPiEC1B7v160006ES1_, symObjAddr: 0x52C0, symBinAddr: 0x1000084DC, symSize: 0x34 }
  - { offsetInCU: 0x13564, offset: 0x13564, size: 0x8, addend: 0x0, symName: __ZNSt3__116reverse_iteratorIPiEppB7v160006Ev, symObjAddr: 0x5360, symBinAddr: 0x10000857C, symSize: 0x20 }
  - { offsetInCU: 0x13589, offset: 0x13589, size: 0x8, addend: 0x0, symName: __ZNKSt3__116reverse_iteratorIPiE4baseB7v160006Ev, symObjAddr: 0x5380, symBinAddr: 0x10000859C, symSize: 0x18 }
  - { offsetInCU: 0x135B3, offset: 0x135B3, size: 0x8, addend: 0x0, symName: __ZNSt3__119__to_address_helperINS_16reverse_iteratorIPiEEvE6__callB7v160006ERKS3_, symObjAddr: 0x5398, symBinAddr: 0x1000085B4, symSize: 0x38 }
  - { offsetInCU: 0x135D6, offset: 0x135D6, size: 0x8, addend: 0x0, symName: __ZNKSt3__116reverse_iteratorIPiEptB7v160006Ev, symObjAddr: 0x53D0, symBinAddr: 0x1000085EC, symSize: 0x24 }
  - { offsetInCU: 0x135FB, offset: 0x135FB, size: 0x8, addend: 0x0, symName: __ZNKSt3__116reverse_iteratorIPiEdeB7v160006Ev, symObjAddr: 0x53F4, symBinAddr: 0x100008610, symSize: 0x28 }
  - { offsetInCU: 0x1362E, offset: 0x1362E, size: 0x8, addend: 0x0, symName: __ZNSt3__116reverse_iteratorIPiEC2B7v160006ES1_, symObjAddr: 0x541C, symBinAddr: 0x100008638, symSize: 0x28 }
  - { offsetInCU: 0x13665, offset: 0x13665, size: 0x8, addend: 0x0, symName: __ZNSt3__16vectorIiNS_9allocatorIiEEE21_ConstructTransactionD2B7v160006Ev, symObjAddr: 0x5444, symBinAddr: 0x100008660, symSize: 0x20 }
  - { offsetInCU: 0x1368E, offset: 0x1368E, size: 0x8, addend: 0x0, symName: __ZNSt3__128__exception_guard_exceptionsINS_6vectorIiNS_9allocatorIiEEE16__destroy_vectorEED2B7v160006Ev, symObjAddr: 0x5464, symBinAddr: 0x100008680, symSize: 0x50 }
  - { offsetInCU: 0x136B7, offset: 0x136B7, size: 0x8, addend: 0x0, symName: __ZNSt3__16vectorIiNS_9allocatorIiEEE16__destroy_vectorclB7v160006Ev, symObjAddr: 0x54B4, symBinAddr: 0x1000086D0, symSize: 0x9C }
  - { offsetInCU: 0x136DC, offset: 0x136DC, size: 0x8, addend: 0x0, symName: __ZNKSt3__16vectorIiNS_9allocatorIiEEE17__annotate_deleteB7v160006Ev, symObjAddr: 0x5550, symBinAddr: 0x10000876C, symSize: 0xB8 }
  - { offsetInCU: 0x13701, offset: 0x13701, size: 0x8, addend: 0x0, symName: __ZNSt3__16vectorIiNS_9allocatorIiEEED2B7v160006Ev, symObjAddr: 0x5618, symBinAddr: 0x100008834, symSize: 0x44 }
  - { offsetInCU: 0x13729, offset: 0x13729, size: 0x8, addend: 0x0, symName: __ZNSt3__16vectorINS_4pairIxNS0_IiNS_9allocatorIiEEEEEENS2_IS5_EEE8pop_backEv, symObjAddr: 0x56B4, symBinAddr: 0x1000088D0, symSize: 0x2C }
  - { offsetInCU: 0x13750, offset: 0x13750, size: 0x8, addend: 0x0, symName: __ZNSt3__111__wrap_iterIPNS_4pairIxNS_6vectorIiNS_9allocatorIiEEEEEEEppB7v160006Ev, symObjAddr: 0x59D4, symBinAddr: 0x100008BF0, symSize: 0x20 }
  - { offsetInCU: 0x13775, offset: 0x13775, size: 0x8, addend: 0x0, symName: __ZNSt3__16vectorINS_4pairIxNS0_IiNS_9allocatorIiEEEEEENS2_IS5_EEE17__destruct_at_endB7v160006EPS5_, symObjAddr: 0x59F4, symBinAddr: 0x100008C10, symSize: 0x60 }
  - { offsetInCU: 0x137B8, offset: 0x137B8, size: 0x8, addend: 0x0, symName: __ZNSt3__16vectorINS_4pairIxNS0_IiNS_9allocatorIiEEEEEENS2_IS5_EEE27__invalidate_iterators_pastB7v160006EPS5_, symObjAddr: 0x5A54, symBinAddr: 0x100008C70, symSize: 0x14 }
  - { offsetInCU: 0x137EE, offset: 0x137EE, size: 0x8, addend: 0x0, symName: __ZNKSt3__16vectorINS_4pairIxNS0_IiNS_9allocatorIiEEEEEENS2_IS5_EEE17__annotate_shrinkB7v160006Em, symObjAddr: 0x5A68, symBinAddr: 0x100008C84, symSize: 0xB4 }
  - { offsetInCU: 0x13822, offset: 0x13822, size: 0x8, addend: 0x0, symName: __ZNSt3__16vectorINS0_IiNS_9allocatorIiEEEENS1_IS3_EEE9__end_capB7v160006Ev, symObjAddr: 0x5B1C, symBinAddr: 0x100008D38, symSize: 0x28 }
  - { offsetInCU: 0x13847, offset: 0x13847, size: 0x8, addend: 0x0, symName: __ZNSt3__16vectorINS0_IiNS_9allocatorIiEEEENS1_IS3_EEE22__construct_one_at_endB7v160006IJRKS3_EEEvDpOT_, symObjAddr: 0x5B44, symBinAddr: 0x100008D60, symSize: 0x90 }
  - { offsetInCU: 0x13894, offset: 0x13894, size: 0x8, addend: 0x0, symName: __ZNSt3__16vectorINS0_IiNS_9allocatorIiEEEENS1_IS3_EEE21__push_back_slow_pathIRKS3_EEvOT_, symObjAddr: 0x5BD4, symBinAddr: 0x100008DF0, symSize: 0xD8 }
  - { offsetInCU: 0x138F1, offset: 0x138F1, size: 0x8, addend: 0x0, symName: __ZNSt3__117__compressed_pairIPNS_6vectorIiNS_9allocatorIiEEEENS2_IS4_EEE5firstB7v160006Ev, symObjAddr: 0x5CAC, symBinAddr: 0x100008EC8, symSize: 0x24 }
  - { offsetInCU: 0x13916, offset: 0x13916, size: 0x8, addend: 0x0, symName: __ZNSt3__122__compressed_pair_elemIPNS_6vectorIiNS_9allocatorIiEEEELi0ELb0EE5__getB7v160006Ev, symObjAddr: 0x5CD0, symBinAddr: 0x100008EEC, symSize: 0x14 }
  - { offsetInCU: 0x13954, offset: 0x13954, size: 0x8, addend: 0x0, symName: __ZNSt3__16vectorINS0_IiNS_9allocatorIiEEEENS1_IS3_EEE21_ConstructTransactionC1B7v160006ERS5_m, symObjAddr: 0x5CE4, symBinAddr: 0x100008F00, symSize: 0x3C }
  - { offsetInCU: 0x1399B, offset: 0x1399B, size: 0x8, addend: 0x0, symName: __ZNSt3__116allocator_traitsINS_9allocatorINS_6vectorIiNS1_IiEEEEEEE9constructB7v160006IS4_JRKS4_EvEEvRS5_PT_DpOT0_, symObjAddr: 0x5D20, symBinAddr: 0x100008F3C, symSize: 0x34 }
  - { offsetInCU: 0x139F2, offset: 0x139F2, size: 0x8, addend: 0x0, symName: __ZNSt3__16vectorINS0_IiNS_9allocatorIiEEEENS1_IS3_EEE21_ConstructTransactionD1B7v160006Ev, symObjAddr: 0x5D54, symBinAddr: 0x100008F70, symSize: 0x2C }
  - { offsetInCU: 0x13A1B, offset: 0x13A1B, size: 0x8, addend: 0x0, symName: __ZNSt3__16vectorINS0_IiNS_9allocatorIiEEEENS1_IS3_EEE21_ConstructTransactionC2B7v160006ERS5_m, symObjAddr: 0x5D80, symBinAddr: 0x100008F9C, symSize: 0x4C }
  - { offsetInCU: 0x13A62, offset: 0x13A62, size: 0x8, addend: 0x0, symName: __ZNSt3__19allocatorINS_6vectorIiNS0_IiEEEEE9constructB7v160006IS3_JRKS3_EEEvPT_DpOT0_, symObjAddr: 0x5DCC, symBinAddr: 0x100008FE8, symSize: 0x30 }
  - { offsetInCU: 0x13AB7, offset: 0x13AB7, size: 0x8, addend: 0x0, symName: __ZNSt3__16vectorINS0_IiNS_9allocatorIiEEEENS1_IS3_EEE21_ConstructTransactionD2B7v160006Ev, symObjAddr: 0x5DFC, symBinAddr: 0x100009018, symSize: 0x20 }
  - { offsetInCU: 0x13ADF, offset: 0x13ADF, size: 0x8, addend: 0x0, symName: __ZNKSt3__16vectorINS0_IiNS_9allocatorIiEEEENS1_IS3_EEE11__recommendB7v160006Em, symObjAddr: 0x5E1C, symBinAddr: 0x100009038, symSize: 0xB4 }
  - { offsetInCU: 0x13B33, offset: 0x13B33, size: 0x8, addend: 0x0, symName: __ZNSt3__114__split_bufferINS_6vectorIiNS_9allocatorIiEEEERNS2_IS4_EEEC1EmmS6_, symObjAddr: 0x5ED0, symBinAddr: 0x1000090EC, symSize: 0x44 }
  - { offsetInCU: 0x13B88, offset: 0x13B88, size: 0x8, addend: 0x0, symName: __ZNSt3__114__split_bufferINS_6vectorIiNS_9allocatorIiEEEERNS2_IS4_EEED1Ev, symObjAddr: 0x602C, symBinAddr: 0x100009248, symSize: 0x2C }
  - { offsetInCU: 0x13BB2, offset: 0x13BB2, size: 0x8, addend: 0x0, symName: __ZNKSt3__16vectorINS0_IiNS_9allocatorIiEEEENS1_IS3_EEE8max_sizeEv, symObjAddr: 0x6058, symBinAddr: 0x100009274, symSize: 0x60 }
  - { offsetInCU: 0x13BD9, offset: 0x13BD9, size: 0x8, addend: 0x0, symName: __ZNKSt3__16vectorINS0_IiNS_9allocatorIiEEEENS1_IS3_EEE20__throw_length_errorB7v160006Ev, symObjAddr: 0x60B8, symBinAddr: 0x1000092D4, symSize: 0x1C }
  - { offsetInCU: 0x13C08, offset: 0x13C08, size: 0x8, addend: 0x0, symName: __ZNSt3__116allocator_traitsINS_9allocatorINS_6vectorIiNS1_IiEEEEEEE8max_sizeB7v160006IS5_vEEmRKS5_, symObjAddr: 0x60D4, symBinAddr: 0x1000092F0, symSize: 0x24 }
  - { offsetInCU: 0x13C36, offset: 0x13C36, size: 0x8, addend: 0x0, symName: __ZNKSt3__16vectorINS0_IiNS_9allocatorIiEEEENS1_IS3_EEE7__allocB7v160006Ev, symObjAddr: 0x60F8, symBinAddr: 0x100009314, symSize: 0x28 }
  - { offsetInCU: 0x13C5B, offset: 0x13C5B, size: 0x8, addend: 0x0, symName: __ZNKSt3__19allocatorINS_6vectorIiNS0_IiEEEEE8max_sizeB7v160006Ev, symObjAddr: 0x6120, symBinAddr: 0x10000933C, symSize: 0x18 }
  - { offsetInCU: 0x13C80, offset: 0x13C80, size: 0x8, addend: 0x0, symName: __ZNKSt3__117__compressed_pairIPNS_6vectorIiNS_9allocatorIiEEEENS2_IS4_EEE6secondB7v160006Ev, symObjAddr: 0x6138, symBinAddr: 0x100009354, symSize: 0x24 }
  - { offsetInCU: 0x13CA5, offset: 0x13CA5, size: 0x8, addend: 0x0, symName: __ZNKSt3__122__compressed_pair_elemINS_9allocatorINS_6vectorIiNS1_IiEEEEEELi1ELb1EE5__getB7v160006Ev, symObjAddr: 0x615C, symBinAddr: 0x100009378, symSize: 0x14 }
  - { offsetInCU: 0x13CCA, offset: 0x13CCA, size: 0x8, addend: 0x0, symName: __ZNSt3__114__split_bufferINS_6vectorIiNS_9allocatorIiEEEERNS2_IS4_EEEC2EmmS6_, symObjAddr: 0x6170, symBinAddr: 0x10000938C, symSize: 0xE0 }
  - { offsetInCU: 0x13D3D, offset: 0x13D3D, size: 0x8, addend: 0x0, symName: __ZNSt3__117__compressed_pairIPNS_6vectorIiNS_9allocatorIiEEEERNS2_IS4_EEEC1B7v160006IDnS7_EEOT_OT0_, symObjAddr: 0x6250, symBinAddr: 0x10000946C, symSize: 0x3C }
  - { offsetInCU: 0x13D94, offset: 0x13D94, size: 0x8, addend: 0x0, symName: __ZNSt3__114__split_bufferINS_6vectorIiNS_9allocatorIiEEEERNS2_IS4_EEE7__allocB7v160006Ev, symObjAddr: 0x62CC, symBinAddr: 0x1000094E8, symSize: 0x28 }
  - { offsetInCU: 0x13DB9, offset: 0x13DB9, size: 0x8, addend: 0x0, symName: __ZNSt3__114__split_bufferINS_6vectorIiNS_9allocatorIiEEEERNS2_IS4_EEE9__end_capB7v160006Ev, symObjAddr: 0x62F4, symBinAddr: 0x100009510, symSize: 0x28 }
  - { offsetInCU: 0x13DDE, offset: 0x13DDE, size: 0x8, addend: 0x0, symName: __ZNSt3__117__compressed_pairIPNS_6vectorIiNS_9allocatorIiEEEERNS2_IS4_EEEC2B7v160006IDnS7_EEOT_OT0_, symObjAddr: 0x631C, symBinAddr: 0x100009538, symSize: 0x48 }
  - { offsetInCU: 0x13E35, offset: 0x13E35, size: 0x8, addend: 0x0, symName: __ZNSt3__122__compressed_pair_elemIRNS_9allocatorINS_6vectorIiNS1_IiEEEEEELi1ELb0EEC2B7v160006IS6_vEEOT_, symObjAddr: 0x6364, symBinAddr: 0x100009580, symSize: 0x20 }
  - { offsetInCU: 0x13E76, offset: 0x13E76, size: 0x8, addend: 0x0, symName: __ZNSt3__19allocatorINS_6vectorIiNS0_IiEEEEE8allocateB7v160006Em, symObjAddr: 0x6384, symBinAddr: 0x1000095A0, symSize: 0x5C }
  - { offsetInCU: 0x13EA9, offset: 0x13EA9, size: 0x8, addend: 0x0, symName: __ZNSt3__117__compressed_pairIPNS_6vectorIiNS_9allocatorIiEEEERNS2_IS4_EEE6secondB7v160006Ev, symObjAddr: 0x63E0, symBinAddr: 0x1000095FC, symSize: 0x28 }
  - { offsetInCU: 0x13ECE, offset: 0x13ECE, size: 0x8, addend: 0x0, symName: __ZNSt3__122__compressed_pair_elemIRNS_9allocatorINS_6vectorIiNS1_IiEEEEEELi1ELb0EE5__getB7v160006Ev, symObjAddr: 0x6408, symBinAddr: 0x100009624, symSize: 0x18 }
  - { offsetInCU: 0x13EF3, offset: 0x13EF3, size: 0x8, addend: 0x0, symName: __ZNSt3__117__compressed_pairIPNS_6vectorIiNS_9allocatorIiEEEERNS2_IS4_EEE5firstB7v160006Ev, symObjAddr: 0x6420, symBinAddr: 0x10000963C, symSize: 0x24 }
  - { offsetInCU: 0x13F18, offset: 0x13F18, size: 0x8, addend: 0x0, symName: __ZNSt3__116reverse_iteratorIPNS_6vectorIiNS_9allocatorIiEEEEEC1B7v160006ES5_, symObjAddr: 0x6570, symBinAddr: 0x10000978C, symSize: 0x34 }
  - { offsetInCU: 0x13F4F, offset: 0x13F4F, size: 0x8, addend: 0x0, symName: __ZNKSt3__116reverse_iteratorIPNS_6vectorIiNS_9allocatorIiEEEEE4baseB7v160006Ev, symObjAddr: 0x65A4, symBinAddr: 0x1000097C0, symSize: 0x18 }
  - { offsetInCU: 0x13F74, offset: 0x13F74, size: 0x8, addend: 0x0, symName: __ZNKSt3__16vectorINS0_IiNS_9allocatorIiEEEENS1_IS3_EEE14__annotate_newB7v160006Em, symObjAddr: 0x65F8, symBinAddr: 0x100009814, symSize: 0xC8 }
  - { offsetInCU: 0x13FA8, offset: 0x13FA8, size: 0x8, addend: 0x0, symName: __ZNSt3__129_AllocatorDestroyRangeReverseINS_9allocatorINS_6vectorIiNS1_IiEEEEEENS_16reverse_iteratorIPS4_EEEC1B7v160006ERS5_RS8_SB_, symObjAddr: 0x671C, symBinAddr: 0x100009938, symSize: 0x44 }
  - { offsetInCU: 0x13FFE, offset: 0x13FFE, size: 0x8, addend: 0x0, symName: __ZNSt3__116allocator_traitsINS_9allocatorINS_6vectorIiNS1_IiEEEEEEE9constructB7v160006IS4_JS4_EvEEvRS5_PT_DpOT0_, symObjAddr: 0x67A8, symBinAddr: 0x1000099C4, symSize: 0x34 }
  - { offsetInCU: 0x14055, offset: 0x14055, size: 0x8, addend: 0x0, symName: __ZNKSt3__116reverse_iteratorIPNS_6vectorIiNS_9allocatorIiEEEEEdeB7v160006Ev, symObjAddr: 0x6800, symBinAddr: 0x100009A1C, symSize: 0x28 }
  - { offsetInCU: 0x14088, offset: 0x14088, size: 0x8, addend: 0x0, symName: __ZNSt3__116reverse_iteratorIPNS_6vectorIiNS_9allocatorIiEEEEEppB7v160006Ev, symObjAddr: 0x6828, symBinAddr: 0x100009A44, symSize: 0x20 }
  - { offsetInCU: 0x140AD, offset: 0x140AD, size: 0x8, addend: 0x0, symName: __ZNSt3__128__exception_guard_exceptionsINS_29_AllocatorDestroyRangeReverseINS_9allocatorINS_6vectorIiNS2_IiEEEEEENS_16reverse_iteratorIPS5_EEEEE10__completeB7v160006Ev, symObjAddr: 0x6848, symBinAddr: 0x100009A64, symSize: 0x1C }
  - { offsetInCU: 0x140D2, offset: 0x140D2, size: 0x8, addend: 0x0, symName: __ZNSt3__128__exception_guard_exceptionsINS_29_AllocatorDestroyRangeReverseINS_9allocatorINS_6vectorIiNS2_IiEEEEEENS_16reverse_iteratorIPS5_EEEEED1B7v160006Ev, symObjAddr: 0x6864, symBinAddr: 0x100009A80, symSize: 0x2C }
  - { offsetInCU: 0x140FB, offset: 0x140FB, size: 0x8, addend: 0x0, symName: __ZNSt3__128__exception_guard_exceptionsINS_29_AllocatorDestroyRangeReverseINS_9allocatorINS_6vectorIiNS2_IiEEEEEENS_16reverse_iteratorIPS5_EEEEEC1B7v160006ESA_, symObjAddr: 0x6890, symBinAddr: 0x100009AAC, symSize: 0x34 }
  - { offsetInCU: 0x14133, offset: 0x14133, size: 0x8, addend: 0x0, symName: __ZNSt3__128__exception_guard_exceptionsINS_29_AllocatorDestroyRangeReverseINS_9allocatorINS_6vectorIiNS2_IiEEEEEENS_16reverse_iteratorIPS5_EEEEEC2B7v160006ESA_, symObjAddr: 0x68C4, symBinAddr: 0x100009AE0, symSize: 0x30 }
  - { offsetInCU: 0x1416B, offset: 0x1416B, size: 0x8, addend: 0x0, symName: __ZNSt3__129_AllocatorDestroyRangeReverseINS_9allocatorINS_6vectorIiNS1_IiEEEEEENS_16reverse_iteratorIPS4_EEEC2B7v160006ERS5_RS8_SB_, symObjAddr: 0x68F4, symBinAddr: 0x100009B10, symSize: 0x38 }
  - { offsetInCU: 0x141C1, offset: 0x141C1, size: 0x8, addend: 0x0, symName: __ZNSt3__19allocatorINS_6vectorIiNS0_IiEEEEE9constructB7v160006IS3_JS3_EEEvPT_DpOT0_, symObjAddr: 0x692C, symBinAddr: 0x100009B48, symSize: 0x30 }
  - { offsetInCU: 0x1421B, offset: 0x1421B, size: 0x8, addend: 0x0, symName: __ZNSt3__119__to_address_helperINS_16reverse_iteratorIPNS_6vectorIiNS_9allocatorIiEEEEEEvE6__callB7v160006ERKS7_, symObjAddr: 0x695C, symBinAddr: 0x100009B78, symSize: 0x38 }
  - { offsetInCU: 0x1423E, offset: 0x1423E, size: 0x8, addend: 0x0, symName: __ZNKSt3__116reverse_iteratorIPNS_6vectorIiNS_9allocatorIiEEEEEptB7v160006Ev, symObjAddr: 0x6994, symBinAddr: 0x100009BB0, symSize: 0x24 }
  - { offsetInCU: 0x14263, offset: 0x14263, size: 0x8, addend: 0x0, symName: __ZNSt3__128__exception_guard_exceptionsINS_29_AllocatorDestroyRangeReverseINS_9allocatorINS_6vectorIiNS2_IiEEEEEENS_16reverse_iteratorIPS5_EEEEED2B7v160006Ev, symObjAddr: 0x69B8, symBinAddr: 0x100009BD4, symSize: 0x50 }
  - { offsetInCU: 0x1428C, offset: 0x1428C, size: 0x8, addend: 0x0, symName: __ZNKSt3__129_AllocatorDestroyRangeReverseINS_9allocatorINS_6vectorIiNS1_IiEEEEEENS_16reverse_iteratorIPS4_EEEclB7v160006Ev, symObjAddr: 0x6A08, symBinAddr: 0x100009C24, symSize: 0xB4 }
  - { offsetInCU: 0x142B2, offset: 0x142B2, size: 0x8, addend: 0x0, symName: __ZNSt3__116reverse_iteratorINS0_IPNS_6vectorIiNS_9allocatorIiEEEEEEEC1B7v160006ES6_, symObjAddr: 0x6B2C, symBinAddr: 0x100009D48, symSize: 0x3C }
  - { offsetInCU: 0x142E9, offset: 0x142E9, size: 0x8, addend: 0x0, symName: __ZNSt3__116reverse_iteratorINS0_IPNS_6vectorIiNS_9allocatorIiEEEEEEEppB7v160006Ev, symObjAddr: 0x6BEC, symBinAddr: 0x100009E08, symSize: 0x30 }
  - { offsetInCU: 0x1430E, offset: 0x1430E, size: 0x8, addend: 0x0, symName: __ZNKSt3__116reverse_iteratorINS0_IPNS_6vectorIiNS_9allocatorIiEEEEEEE4baseB7v160006Ev, symObjAddr: 0x6C1C, symBinAddr: 0x100009E38, symSize: 0x24 }
  - { offsetInCU: 0x14338, offset: 0x14338, size: 0x8, addend: 0x0, symName: __ZNSt3__119__to_address_helperINS_16reverse_iteratorINS1_IPNS_6vectorIiNS_9allocatorIiEEEEEEEEvE6__callB7v160006ERKS8_, symObjAddr: 0x6C40, symBinAddr: 0x100009E5C, symSize: 0x38 }
  - { offsetInCU: 0x1435B, offset: 0x1435B, size: 0x8, addend: 0x0, symName: __ZNKSt3__116reverse_iteratorINS0_IPNS_6vectorIiNS_9allocatorIiEEEEEEEptB7v160006Ev, symObjAddr: 0x6C78, symBinAddr: 0x100009E94, symSize: 0x24 }
  - { offsetInCU: 0x14380, offset: 0x14380, size: 0x8, addend: 0x0, symName: __ZNKSt3__116reverse_iteratorINS0_IPNS_6vectorIiNS_9allocatorIiEEEEEEEdeB7v160006Ev, symObjAddr: 0x6C9C, symBinAddr: 0x100009EB8, symSize: 0x34 }
  - { offsetInCU: 0x143B3, offset: 0x143B3, size: 0x8, addend: 0x0, symName: __ZNSt3__116reverse_iteratorIPNS_6vectorIiNS_9allocatorIiEEEEEmmB7v160006Ev, symObjAddr: 0x6CD0, symBinAddr: 0x100009EEC, symSize: 0x20 }
  - { offsetInCU: 0x143D8, offset: 0x143D8, size: 0x8, addend: 0x0, symName: __ZNSt3__116reverse_iteratorINS0_IPNS_6vectorIiNS_9allocatorIiEEEEEEEC2B7v160006ES6_, symObjAddr: 0x6CF0, symBinAddr: 0x100009F0C, symSize: 0x2C }
  - { offsetInCU: 0x1440F, offset: 0x1440F, size: 0x8, addend: 0x0, symName: __ZNSt3__116reverse_iteratorIPNS_6vectorIiNS_9allocatorIiEEEEEC2B7v160006ES5_, symObjAddr: 0x6D1C, symBinAddr: 0x100009F38, symSize: 0x28 }
  - { offsetInCU: 0x14446, offset: 0x14446, size: 0x8, addend: 0x0, symName: __ZNSt3__114__split_bufferINS_6vectorIiNS_9allocatorIiEEEERNS2_IS4_EEED2Ev, symObjAddr: 0x6D44, symBinAddr: 0x100009F60, symSize: 0x8C }
  - { offsetInCU: 0x14471, offset: 0x14471, size: 0x8, addend: 0x0, symName: __ZNSt3__114__split_bufferINS_6vectorIiNS_9allocatorIiEEEERNS2_IS4_EEE5clearB7v160006Ev, symObjAddr: 0x6DD0, symBinAddr: 0x100009FEC, symSize: 0x28 }
  - { offsetInCU: 0x14496, offset: 0x14496, size: 0x8, addend: 0x0, symName: __ZNKSt3__114__split_bufferINS_6vectorIiNS_9allocatorIiEEEERNS2_IS4_EEE8capacityB7v160006Ev, symObjAddr: 0x6DF8, symBinAddr: 0x10000A014, symSize: 0x40 }
  - { offsetInCU: 0x144BB, offset: 0x144BB, size: 0x8, addend: 0x0, symName: __ZNSt3__114__split_bufferINS_6vectorIiNS_9allocatorIiEEEERNS2_IS4_EEE17__destruct_at_endB7v160006EPS4_, symObjAddr: 0x6E38, symBinAddr: 0x10000A054, symSize: 0x2C }
  - { offsetInCU: 0x144ED, offset: 0x144ED, size: 0x8, addend: 0x0, symName: __ZNSt3__114__split_bufferINS_6vectorIiNS_9allocatorIiEEEERNS2_IS4_EEE17__destruct_at_endB7v160006EPS4_NS_17integral_constantIbLb0EEE, symObjAddr: 0x6E64, symBinAddr: 0x10000A080, symSize: 0x80 }
  - { offsetInCU: 0x1452D, offset: 0x1452D, size: 0x8, addend: 0x0, symName: __ZNKSt3__114__split_bufferINS_6vectorIiNS_9allocatorIiEEEERNS2_IS4_EEE9__end_capB7v160006Ev, symObjAddr: 0x6EE4, symBinAddr: 0x10000A100, symSize: 0x28 }
  - { offsetInCU: 0x14552, offset: 0x14552, size: 0x8, addend: 0x0, symName: __ZNKSt3__117__compressed_pairIPNS_6vectorIiNS_9allocatorIiEEEERNS2_IS4_EEE5firstB7v160006Ev, symObjAddr: 0x6F0C, symBinAddr: 0x10000A128, symSize: 0x24 }
  - { offsetInCU: 0x14577, offset: 0x14577, size: 0x8, addend: 0x0, symName: __ZNSt3__16vectorINS0_IiNS_9allocatorIiEEEENS1_IS3_EEE17__destruct_at_endB7v160006EPS3_, symObjAddr: 0x6F30, symBinAddr: 0x10000A14C, symSize: 0x60 }
  - { offsetInCU: 0x145BA, offset: 0x145BA, size: 0x8, addend: 0x0, symName: __ZNSt3__16vectorINS0_IiNS_9allocatorIiEEEENS1_IS3_EEE27__invalidate_iterators_pastB7v160006EPS3_, symObjAddr: 0x6F90, symBinAddr: 0x10000A1AC, symSize: 0x14 }
  - { offsetInCU: 0x145F0, offset: 0x145F0, size: 0x8, addend: 0x0, symName: __ZNKSt3__16vectorINS0_IiNS_9allocatorIiEEEENS1_IS3_EEE17__annotate_shrinkB7v160006Em, symObjAddr: 0x6FA4, symBinAddr: 0x10000A1C0, symSize: 0xD0 }
  - { offsetInCU: 0x14624, offset: 0x14624, size: 0x8, addend: 0x0, symName: __ZNSt3__16vectorIiNS_9allocatorIiEEEC2B7v160006Ev, symObjAddr: 0x7074, symBinAddr: 0x10000A290, symSize: 0x54 }
  - { offsetInCU: 0x1464D, offset: 0x1464D, size: 0x8, addend: 0x0, symName: __ZNSt3__117__compressed_pairIPiNS_9allocatorIiEEEC1B7v160006IDnNS_18__default_init_tagEEEOT_OT0_, symObjAddr: 0x70C8, symBinAddr: 0x10000A2E4, symSize: 0x3C }
  - { offsetInCU: 0x146A4, offset: 0x146A4, size: 0x8, addend: 0x0, symName: __ZNSt3__117__compressed_pairIPiNS_9allocatorIiEEEC2B7v160006IDnNS_18__default_init_tagEEEOT_OT0_, symObjAddr: 0x7104, symBinAddr: 0x10000A320, symSize: 0x40 }
  - { offsetInCU: 0x146FB, offset: 0x146FB, size: 0x8, addend: 0x0, symName: __ZNSt3__122__compressed_pair_elemINS_9allocatorIiEELi1ELb1EEC2B7v160006ENS_18__default_init_tagE, symObjAddr: 0x7144, symBinAddr: 0x10000A360, symSize: 0x2C }
  - { offsetInCU: 0x1472F, offset: 0x1472F, size: 0x8, addend: 0x0, symName: __ZNSt3__19allocatorIiEC2B7v160006Ev, symObjAddr: 0x7170, symBinAddr: 0x10000A38C, symSize: 0x2C }
  - { offsetInCU: 0x14758, offset: 0x14758, size: 0x8, addend: 0x0, symName: __ZNSt3__116__non_trivial_ifILb1ENS_9allocatorIiEEEC2B7v160006Ev, symObjAddr: 0x719C, symBinAddr: 0x10000A3B8, symSize: 0x14 }
  - { offsetInCU: 0x14781, offset: 0x14781, size: 0x8, addend: 0x0, symName: __ZNSt3__16vectorIiNS_9allocatorIiEEE22__construct_one_at_endB7v160006IJRKiEEEvDpOT_, symObjAddr: 0x71B0, symBinAddr: 0x10000A3CC, symSize: 0x90 }
  - { offsetInCU: 0x147CE, offset: 0x147CE, size: 0x8, addend: 0x0, symName: __ZNSt3__16vectorIiNS_9allocatorIiEEE21__push_back_slow_pathIRKiEEvOT_, symObjAddr: 0x7240, symBinAddr: 0x10000A45C, symSize: 0xD8 }
  - { offsetInCU: 0x1482B, offset: 0x1482B, size: 0x8, addend: 0x0, symName: __ZNSt3__116allocator_traitsINS_9allocatorIiEEE9constructB7v160006IiJRKiEvEEvRS2_PT_DpOT0_, symObjAddr: 0x7318, symBinAddr: 0x10000A534, symSize: 0x34 }
  - { offsetInCU: 0x14882, offset: 0x14882, size: 0x8, addend: 0x0, symName: __ZNSt3__19allocatorIiE9constructB7v160006IiJRKiEEEvPT_DpOT0_, symObjAddr: 0x734C, symBinAddr: 0x10000A568, symSize: 0x28 }
  - { offsetInCU: 0x148D6, offset: 0x148D6, size: 0x8, addend: 0x0, symName: __ZNKSt3__16vectorIiNS_9allocatorIiEEE11__recommendB7v160006Em, symObjAddr: 0x7374, symBinAddr: 0x10000A590, symSize: 0xB4 }
  - { offsetInCU: 0x1492A, offset: 0x1492A, size: 0x8, addend: 0x0, symName: __ZNSt3__114__split_bufferIiRNS_9allocatorIiEEEC1EmmS3_, symObjAddr: 0x7428, symBinAddr: 0x10000A644, symSize: 0x44 }
  - { offsetInCU: 0x1497F, offset: 0x1497F, size: 0x8, addend: 0x0, symName: __ZNSt3__114__split_bufferIiRNS_9allocatorIiEEED1Ev, symObjAddr: 0x7584, symBinAddr: 0x10000A7A0, symSize: 0x2C }
  - { offsetInCU: 0x149AA, offset: 0x149AA, size: 0x8, addend: 0x0, symName: __ZNSt3__114__split_bufferIiRNS_9allocatorIiEEEC2EmmS3_, symObjAddr: 0x75B0, symBinAddr: 0x10000A7CC, symSize: 0xD4 }
  - { offsetInCU: 0x14A1D, offset: 0x14A1D, size: 0x8, addend: 0x0, symName: __ZNSt3__117__compressed_pairIPiRNS_9allocatorIiEEEC1B7v160006IDnS4_EEOT_OT0_, symObjAddr: 0x7684, symBinAddr: 0x10000A8A0, symSize: 0x3C }
  - { offsetInCU: 0x14A74, offset: 0x14A74, size: 0x8, addend: 0x0, symName: __ZNSt3__114__split_bufferIiRNS_9allocatorIiEEE7__allocB7v160006Ev, symObjAddr: 0x76C0, symBinAddr: 0x10000A8DC, symSize: 0x28 }
  - { offsetInCU: 0x14A99, offset: 0x14A99, size: 0x8, addend: 0x0, symName: __ZNSt3__114__split_bufferIiRNS_9allocatorIiEEE9__end_capB7v160006Ev, symObjAddr: 0x76E8, symBinAddr: 0x10000A904, symSize: 0x28 }
  - { offsetInCU: 0x14ABE, offset: 0x14ABE, size: 0x8, addend: 0x0, symName: __ZNSt3__117__compressed_pairIPiRNS_9allocatorIiEEEC2B7v160006IDnS4_EEOT_OT0_, symObjAddr: 0x7710, symBinAddr: 0x10000A92C, symSize: 0x48 }
  - { offsetInCU: 0x14B15, offset: 0x14B15, size: 0x8, addend: 0x0, symName: __ZNSt3__122__compressed_pair_elemIRNS_9allocatorIiEELi1ELb0EEC2B7v160006IS3_vEEOT_, symObjAddr: 0x7758, symBinAddr: 0x10000A974, symSize: 0x20 }
  - { offsetInCU: 0x14B56, offset: 0x14B56, size: 0x8, addend: 0x0, symName: __ZNSt3__117__compressed_pairIPiRNS_9allocatorIiEEE6secondB7v160006Ev, symObjAddr: 0x7778, symBinAddr: 0x10000A994, symSize: 0x28 }
  - { offsetInCU: 0x14B7B, offset: 0x14B7B, size: 0x8, addend: 0x0, symName: __ZNSt3__122__compressed_pair_elemIRNS_9allocatorIiEELi1ELb0EE5__getB7v160006Ev, symObjAddr: 0x77A0, symBinAddr: 0x10000A9BC, symSize: 0x18 }
  - { offsetInCU: 0x14BA0, offset: 0x14BA0, size: 0x8, addend: 0x0, symName: __ZNSt3__117__compressed_pairIPiRNS_9allocatorIiEEE5firstB7v160006Ev, symObjAddr: 0x77B8, symBinAddr: 0x10000A9D4, symSize: 0x24 }
  - { offsetInCU: 0x14BE8, offset: 0x14BE8, size: 0x8, addend: 0x0, symName: __ZNKSt3__111__move_loopINS_17_ClassicAlgPolicyEEclB7v160006INS_16reverse_iteratorIPiEES6_S6_EENS_4pairIT_T1_EES8_T0_S9_, symObjAddr: 0x7B80, symBinAddr: 0x10000AD9C, symSize: 0xA0 }
  - { offsetInCU: 0x14C57, offset: 0x14C57, size: 0x8, addend: 0x0, symName: __ZNSt3__18_IterOpsINS_17_ClassicAlgPolicyEE11__iter_moveB7v160006IRNS_16reverse_iteratorIPiEEEENS_9enable_ifIXsr12is_referenceIDTdeclsr3stdE7declvalIRT_EEEEE5valueEDTclsr3stdE4movedeclsr3stdE7declvalISA_EEEEE4typeEOS9_, symObjAddr: 0x7D6C, symBinAddr: 0x10000AF88, symSize: 0x28 }
  - { offsetInCU: 0x14C83, offset: 0x14C83, size: 0x8, addend: 0x0, symName: __ZNSt3__18_IterOpsINS_17_ClassicAlgPolicyEE25__validate_iter_referenceB7v160006IRNS_16reverse_iteratorIPiEEEEvv, symObjAddr: 0x7D94, symBinAddr: 0x10000AFB0, symSize: 0x4 }
  - { offsetInCU: 0x14CA1, offset: 0x14CA1, size: 0x8, addend: 0x0, symName: __ZNSt3__118__unwrap_iter_implINS_16reverse_iteratorIPiEELb0EE8__unwrapB7v160006ES3_, symObjAddr: 0x7D98, symBinAddr: 0x10000AFB4, symSize: 0x24 }
  - { offsetInCU: 0x14CC9, offset: 0x14CC9, size: 0x8, addend: 0x0, symName: __ZNSt3__14pairINS_16reverse_iteratorIPiEES3_EC1B7v160006IS3_S3_LPv0EEEOT_OT0_, symObjAddr: 0x7DBC, symBinAddr: 0x10000AFD8, symSize: 0x3C }
  - { offsetInCU: 0x14D26, offset: 0x14D26, size: 0x8, addend: 0x0, symName: __ZNSt3__14pairINS_16reverse_iteratorIPiEES3_EC2B7v160006IS3_S3_LPv0EEEOT_OT0_, symObjAddr: 0x7DF8, symBinAddr: 0x10000B014, symSize: 0x34 }
  - { offsetInCU: 0x14D83, offset: 0x14D83, size: 0x8, addend: 0x0, symName: __ZNSt3__118__unwrap_iter_implINS_16reverse_iteratorIPiEELb0EE8__rewrapB7v160006ES3_S3_, symObjAddr: 0x7E2C, symBinAddr: 0x10000B048, symSize: 0x2C }
  - { offsetInCU: 0x14DB1, offset: 0x14DB1, size: 0x8, addend: 0x0, symName: __ZNSt3__114__split_bufferIiRNS_9allocatorIiEEED2Ev, symObjAddr: 0x7E58, symBinAddr: 0x10000B074, symSize: 0x8C }
  - { offsetInCU: 0x14DDC, offset: 0x14DDC, size: 0x8, addend: 0x0, symName: __ZNSt3__114__split_bufferIiRNS_9allocatorIiEEE5clearB7v160006Ev, symObjAddr: 0x7EE4, symBinAddr: 0x10000B100, symSize: 0x28 }
  - { offsetInCU: 0x14E01, offset: 0x14E01, size: 0x8, addend: 0x0, symName: __ZNKSt3__114__split_bufferIiRNS_9allocatorIiEEE8capacityB7v160006Ev, symObjAddr: 0x7F0C, symBinAddr: 0x10000B128, symSize: 0x40 }
  - { offsetInCU: 0x14E26, offset: 0x14E26, size: 0x8, addend: 0x0, symName: __ZNSt3__114__split_bufferIiRNS_9allocatorIiEEE17__destruct_at_endB7v160006EPi, symObjAddr: 0x7F4C, symBinAddr: 0x10000B168, symSize: 0x2C }
  - { offsetInCU: 0x14E58, offset: 0x14E58, size: 0x8, addend: 0x0, symName: __ZNSt3__114__split_bufferIiRNS_9allocatorIiEEE17__destruct_at_endB7v160006EPiNS_17integral_constantIbLb0EEE, symObjAddr: 0x7F78, symBinAddr: 0x10000B194, symSize: 0x80 }
  - { offsetInCU: 0x14E98, offset: 0x14E98, size: 0x8, addend: 0x0, symName: __ZNKSt3__114__split_bufferIiRNS_9allocatorIiEEE9__end_capB7v160006Ev, symObjAddr: 0x7FF8, symBinAddr: 0x10000B214, symSize: 0x28 }
  - { offsetInCU: 0x14EBD, offset: 0x14EBD, size: 0x8, addend: 0x0, symName: __ZNKSt3__117__compressed_pairIPiRNS_9allocatorIiEEE5firstB7v160006Ev, symObjAddr: 0x8020, symBinAddr: 0x10000B23C, symSize: 0x24 }
  - { offsetInCU: 0x14EE7, offset: 0x14EE7, size: 0x8, addend: 0x0, symName: __ZNSt3__14pairIxNS_6vectorIiNS_9allocatorIiEEEEEC1B7v160006IRxRS4_LPv0EEEOT_OT0_, symObjAddr: 0x8044, symBinAddr: 0x10000B260, symSize: 0x3C }
  - { offsetInCU: 0x14F44, offset: 0x14F44, size: 0x8, addend: 0x0, symName: __ZNSt3__14pairIxNS_6vectorIiNS_9allocatorIiEEEEEC2B7v160006IRxRS4_LPv0EEEOT_OT0_, symObjAddr: 0x8080, symBinAddr: 0x10000B29C, symSize: 0x48 }
  - { offsetInCU: 0x14FA0, offset: 0x14FA0, size: 0x8, addend: 0x0, symName: __ZNKSt3__19basic_iosIcNS_11char_traitsIcEEE5widenB7v160006Ec, symObjAddr: 0x80C8, symBinAddr: 0x10000B2E4, symSize: 0x84 }
  - { offsetInCU: 0x1500D, offset: 0x1500D, size: 0x8, addend: 0x0, symName: __ZNKSt3__15ctypeIcE5widenB7v160006Ec, symObjAddr: 0x8178, symBinAddr: 0x10000B394, symSize: 0x38 }
...
